(lp0
(S'9+99'
p1
S'108'
p2
tp3
a(S'1+81'
p4
S'82'
p5
tp6
a(S'96+30'
p7
S'126'
p8
tp9
a(S'80+80'
p10
S'160'
p11
tp12
a(S'60+98'
p13
S'158'
p14
tp15
a(S'37+98'
p16
S'135'
p17
tp18
a(S'63+43'
p19
S'106'
p20
tp21
a(S'54+78'
p22
S'132'
p23
tp24
a(S'94+50'
p25
S'144'
p26
tp27
a(S'89+81'
p28
S'170'
p29
tp30
a(S'28+88'
p31
S'116'
p32
tp33
a(S'70+47'
p34
S'117'
p35
tp36
a(S'47+94'
p37
S'141'
p38
tp39
a(S'76+32'
p40
S'108'
p41
tp42
a(S'82+87'
p43
S'169'
p44
tp45
a(S'74+8'
p46
S'82'
p47
tp48
a(S'60+44'
p49
S'104'
p50
tp51
a(S'38+38'
p52
S'76'
p53
tp54
a(S'45+94'
p55
S'139'
p56
tp57
a(S'33+16'
p58
S'49'
p59
tp60
a(S'67+31'
p61
S'98'
p62
tp63
a(S'76+66'
p64
S'142'
p65
tp66
a(S'18+32'
p67
S'50'
p68
tp69
a(S'38+56'
p70
S'94'
p71
tp72
a(S'42+94'
p73
S'136'
p74
tp75
a(S'48+6'
p76
S'54'
p77
tp78
a(S'30+84'
p79
S'114'
p80
tp81
a(S'13+33'
p82
S'46'
p83
tp84
a(S'42+55'
p85
S'97'
p86
tp87
a(S'89+41'
p88
S'130'
p89
tp90
a(S'56+89'
p91
S'145'
p92
tp93
a(S'26+40'
p94
S'66'
p95
tp96
a(S'99+20'
p97
S'119'
p98
tp99
a(S'58+7'
p100
S'65'
p101
tp102
a(S'30+25'
p103
S'55'
p104
tp105
a(S'99+14'
p106
S'113'
p107
tp108
a(S'6+13'
p109
S'19'
p110
tp111
a(S'25+35'
p112
S'60'
p113
tp114
a(S'15+68'
p115
S'83'
p116
tp117
a(S'60+71'
p118
S'131'
p119
tp120
a(S'58+91'
p121
S'149'
p122
tp123
a(S'8+22'
p124
S'30'
p125
tp126
a(S'13+27'
p127
S'40'
p128
tp129
a(S'15+44'
p130
S'59'
p131
tp132
a(S'99+29'
p133
S'128'
p134
tp135
a(S'28+0'
p136
S'28'
p137
tp138
a(S'66+8'
p139
S'74'
p140
tp141
a(S'64+46'
p142
S'110'
p143
tp144
a(S'45+76'
p145
S'121'
p146
tp147
a(S'7+19'
p148
S'26'
p149
tp150
a(S'45+42'
p151
S'87'
p152
tp153
a(S'79+80'
p154
S'159'
p155
tp156
a(S'93+86'
p157
S'179'
p158
tp159
a(S'0+18'
p160
S'18'
p161
tp162
a(S'35+69'
p163
S'104'
p164
tp165
a(S'64+19'
p166
S'83'
p167
tp168
a(S'81+96'
p169
S'177'
p170
tp171
a(S'91+0'
p172
S'91'
p173
tp174
a(S'57+72'
p175
S'129'
p176
tp177
a(S'3+7'
p178
S'10'
p179
tp180
a(S'93+10'
p181
S'103'
p182
tp183
a(S'66+72'
p184
S'138'
p185
tp186
a(S'36+49'
p187
S'85'
p188
tp189
a(S'11+3'
p190
S'14'
p191
tp192
a(S'24+18'
p193
S'42'
p194
tp195
a(S'99+84'
p196
S'183'
p197
tp198
a(S'90+33'
p199
S'123'
p200
tp201
a(S'21+39'
p202
S'60'
p203
tp204
a(S'37+48'
p205
S'85'
p206
tp207
a(S'87+69'
p208
S'156'
p209
tp210
a(S'89+23'
p211
S'112'
p212
tp213
a(S'5+79'
p214
S'84'
p215
tp216
a(S'40+5'
p217
S'45'
p218
tp219
a(S'48+32'
p220
S'80'
p221
tp222
a(S'81+30'
p223
S'111'
p224
tp225
a(S'58+18'
p226
S'76'
p227
tp228
a(S'44+20'
p229
S'64'
p230
tp231
a(S'54+27'
p232
S'81'
p233
tp234
a(S'90+82'
p235
S'172'
p236
tp237
a(S'77+59'
p238
S'136'
p239
tp240
a(S'79+78'
p241
S'157'
p242
tp243
a(S'70+31'
p244
S'101'
p245
tp246
a(S'61+78'
p247
S'139'
p248
tp249
a(S'26+35'
p250
S'61'
p251
tp252
a(S'7+86'
p253
S'93'
p254
tp255
a(S'64+18'
p256
S'82'
p257
tp258
a(S'76+46'
p259
S'122'
p260
tp261
a(S'5+99'
p262
S'104'
p263
tp264
a(S'43+54'
p265
S'97'
p266
tp267
a(S'0+45'
p268
S'45'
p269
tp270
a(S'33+85'
p271
S'118'
p272
tp273
a(S'42+6'
p274
S'48'
p275
tp276
a(S'36+83'
p277
S'119'
p278
tp279
a(S'46+5'
p280
S'51'
p281
tp282
a(S'7+14'
p283
S'21'
p284
tp285
a(S'74+58'
p286
S'132'
p287
tp288
a(S'48+98'
p289
S'146'
p290
tp291
a(S'69+77'
p292
S'146'
p293
tp294
a(S'81+16'
p295
S'97'
p296
tp297
a(S'19+46'
p298
S'65'
p299
tp300
a(S'2+78'
p301
S'80'
p302
tp303
a(S'76+30'
p304
S'106'
p305
tp306
a(S'89+27'
p307
S'116'
p308
tp309
a(S'60+53'
p310
S'113'
p311
tp312
a(S'48+7'
p313
S'55'
p314
tp315
a(S'96+15'
p316
S'111'
p317
tp318
a(S'49+61'
p319
S'110'
p320
tp321
a(S'92+53'
p322
S'145'
p323
tp324
a(S'98+27'
p325
S'125'
p326
tp327
a(S'43+65'
p328
S'108'
p329
tp330
a(S'19+45'
p331
S'64'
p332
tp333
a(S'57+46'
p334
S'103'
p335
tp336
a(S'74+40'
p337
S'114'
p338
tp339
a(S'66+7'
p340
S'73'
p341
tp342
a(S'63+87'
p343
S'150'
p344
tp345
a(S'27+18'
p346
S'45'
p347
tp348
a(S'47+53'
p349
S'100'
p350
tp351
a(S'38+96'
p352
S'134'
p353
tp354
a(S'34+18'
p355
S'52'
p356
tp357
a(S'86+32'
p358
S'118'
p359
tp360
a(S'38+41'
p361
S'79'
p362
tp363
a(S'94+80'
p364
S'174'
p365
tp366
a(S'91+44'
p367
S'135'
p368
tp369
a(S'79+64'
p370
S'143'
p371
tp372
a(S'82+59'
p373
S'141'
p374
tp375
a(S'9+83'
p376
S'92'
p377
tp378
a(S'88+72'
p379
S'160'
p380
tp381
a(S'39+34'
p382
S'73'
p383
tp384
a(S'72+26'
p385
S'98'
p386
tp387
a(S'75+4'
p388
S'79'
p389
tp390
a(S'50+28'
p391
S'78'
p392
tp393
a(S'14+91'
p394
S'105'
p395
tp396
a(S'74+15'
p397
S'89'
p398
tp399
a(S'47+80'
p400
S'127'
p401
tp402
a(S'70+32'
p403
S'102'
p404
tp405
a(S'1+26'
p406
S'27'
p407
tp408
a(S'16+70'
p409
S'86'
p410
tp411
a(S'95+15'
p412
S'110'
p413
tp414
a(S'89+52'
p415
S'141'
p416
tp417
a(S'6+40'
p418
S'46'
p419
tp420
a(S'75+79'
p421
S'154'
p422
tp423
a(S'38+88'
p424
S'126'
p425
tp426
a(S'68+93'
p427
S'161'
p428
tp429
a(S'56+30'
p430
S'86'
p431
tp432
a(S'61+1'
p433
S'62'
p434
tp435
a(S'61+18'
p436
S'79'
p437
tp438
a(S'37+16'
p439
S'53'
p440
tp441
a(S'42+34'
p442
S'76'
p443
tp444
a(S'87+22'
p445
S'109'
p446
tp447
a(S'79+94'
p448
S'173'
p449
tp450
a(S'61+28'
p451
S'89'
p452
tp453
a(S'56+98'
p454
S'154'
p455
tp456
a(S'43+70'
p457
S'113'
p458
tp459
a(S'68+69'
p460
S'137'
p461
tp462
a(S'85+21'
p463
S'106'
p464
tp465
a(S'48+92'
p466
S'140'
p467
tp468
a(S'40+60'
p469
S'100'
p470
tp471
a(S'41+40'
p472
S'81'
p473
tp474
a(S'36+59'
p475
S'95'
p476
tp477
a(S'81+92'
p478
S'173'
p479
tp480
a(S'75+22'
p481
S'97'
p482
tp483
a(S'17+89'
p484
S'106'
p485
tp486
a(S'68+26'
p487
S'94'
p488
tp489
a(S'32+39'
p490
S'71'
p491
tp492
a(S'17+72'
p493
S'89'
p494
tp495
a(S'70+47'
p496
S'117'
p497
tp498
a(S'78+54'
p499
S'132'
p500
tp501
a(S'19+68'
p502
S'87'
p503
tp504
a(S'21+41'
p505
S'62'
p506
tp507
a(S'42+82'
p508
S'124'
p509
tp510
a(S'43+99'
p511
S'142'
p512
tp513
a(S'68+75'
p514
S'143'
p515
tp516
a(S'40+52'
p517
S'92'
p518
tp519
a(S'29+97'
p520
S'126'
p521
tp522
a(S'67+18'
p523
S'85'
p524
tp525
a(S'92+68'
p526
S'160'
p527
tp528
a(S'5+15'
p529
S'20'
p530
tp531
a(S'76+43'
p532
S'119'
p533
tp534
a(S'39+81'
p535
S'120'
p536
tp537
a(S'84+28'
p538
S'112'
p539
tp540
a(S'40+96'
p541
S'136'
p542
tp543
a(S'96+28'
p544
S'124'
p545
tp546
a(S'50+63'
p547
S'113'
p548
tp549
a(S'90+75'
p550
S'165'
p551
tp552
a(S'60+94'
p553
S'154'
p554
tp555
a(S'22+2'
p556
S'24'
p557
tp558
a(S'22+26'
p559
S'48'
p560
tp561
a(S'72+99'
p562
S'171'
p563
tp564
a(S'82+27'
p565
S'109'
p566
tp567
a(S'50+53'
p568
S'103'
p569
tp570
a(S'53+12'
p571
S'65'
p572
tp573
a(S'68+58'
p574
S'126'
p575
tp576
a(S'36+81'
p577
S'117'
p578
tp579
a(S'85+27'
p580
S'112'
p581
tp582
a(S'45+75'
p583
S'120'
p584
tp585
a(S'41+2'
p586
S'43'
p587
tp588
a(S'45+44'
p589
S'89'
p590
tp591
a(S'80+42'
p592
S'122'
p593
tp594
a(S'69+24'
p595
S'93'
p596
tp597
a(S'38+14'
p598
S'52'
p599
tp600
a(S'65+22'
p601
S'87'
p602
tp603
a(S'16+52'
p604
S'68'
p605
tp606
a(S'29+70'
p607
S'99'
p608
tp609
a(S'86+9'
p610
S'95'
p611
tp612
a(S'7+93'
p613
S'100'
p614
tp615
a(S'75+52'
p616
S'127'
p617
tp618
a(S'69+7'
p619
S'76'
p620
tp621
a(S'84+5'
p622
S'89'
p623
tp624
a(S'60+95'
p625
S'155'
p626
tp627
a(S'28+73'
p628
S'101'
p629
tp630
a(S'42+78'
p631
S'120'
p632
tp633
a(S'25+55'
p634
S'80'
p635
tp636
a(S'74+49'
p637
S'123'
p638
tp639
a(S'64+19'
p640
S'83'
p641
tp642
a(S'37+8'
p643
S'45'
p644
tp645
a(S'10+34'
p646
S'44'
p647
tp648
a(S'28+10'
p649
S'38'
p650
tp651
a(S'33+0'
p652
S'33'
p653
tp654
a(S'55+74'
p655
S'129'
p656
tp657
a(S'8+61'
p658
S'69'
p659
tp660
a(S'26+21'
p661
S'47'
p662
tp663
a(S'6+41'
p664
S'47'
p665
tp666
a(S'7+13'
p667
S'20'
p668
tp669
a(S'90+49'
p670
S'139'
p671
tp672
a(S'36+37'
p673
S'73'
p674
tp675
a(S'5+21'
p676
S'26'
p677
tp678
a(S'10+26'
p679
S'36'
p680
tp681
a(S'19+78'
p682
S'97'
p683
tp684
a(S'55+90'
p685
S'145'
p686
tp687
a(S'94+89'
p688
S'183'
p689
tp690
a(S'38+72'
p691
S'110'
p692
tp693
a(S'78+92'
p694
S'170'
p695
tp696
a(S'85+53'
p697
S'138'
p698
tp699
a(S'69+33'
p700
S'102'
p701
tp702
a(S'92+20'
p703
S'112'
p704
tp705
a(S'47+25'
p706
S'72'
p707
tp708
a(S'83+11'
p709
S'94'
p710
tp711
a(S'54+77'
p712
S'131'
p713
tp714
a(S'67+74'
p715
S'141'
p716
tp717
a(S'64+71'
p718
S'135'
p719
tp720
a(S'17+57'
p721
S'74'
p722
tp723
a(S'55+52'
p724
S'107'
p725
tp726
a(S'98+7'
p727
S'105'
p728
tp729
a(S'11+57'
p730
S'68'
p731
tp732
a(S'15+27'
p733
S'42'
p734
tp735
a(S'19+40'
p736
S'59'
p737
tp738
a(S'70+58'
p739
S'128'
p740
tp741
a(S'3+55'
p742
S'58'
p743
tp744
a(S'50+95'
p745
S'145'
p746
tp747
a(S'69+43'
p748
S'112'
p749
tp750
a(S'66+74'
p751
S'140'
p752
tp753
a(S'0+31'
p754
S'31'
p755
tp756
a(S'55+53'
p757
S'108'
p758
tp759
a(S'33+1'
p760
S'34'
p761
tp762
a(S'41+70'
p763
S'111'
p764
tp765
a(S'6+78'
p766
S'84'
p767
tp768
a(S'29+19'
p769
S'48'
p770
tp771
a(S'73+3'
p772
S'76'
p773
tp774
a(S'65+19'
p775
S'84'
p776
tp777
a(S'65+41'
p778
S'106'
p779
tp780
a(S'25+78'
p781
S'103'
p782
tp783
a(S'0+46'
p784
S'46'
p785
tp786
a(S'7+0'
p787
S'7'
p788
tp789
a(S'43+98'
p790
S'141'
p791
tp792
a(S'16+34'
p793
S'50'
p794
tp795
a(S'66+5'
p796
S'71'
p797
tp798
a(S'97+71'
p799
S'168'
p800
tp801
a(S'48+93'
p802
S'141'
p803
tp804
a(S'12+65'
p805
S'77'
p806
tp807
a(S'73+62'
p808
S'135'
p809
tp810
a(S'63+94'
p811
S'157'
p812
tp813
a(S'30+14'
p814
S'44'
p815
tp816
a(S'29+25'
p817
S'54'
p818
tp819
a(S'98+79'
p820
S'177'
p821
tp822
a(S'10+90'
p823
S'100'
p824
tp825
a(S'9+21'
p826
S'30'
p827
tp828
a(S'69+98'
p829
S'167'
p830
tp831
a(S'69+67'
p832
S'136'
p833
tp834
a(S'66+92'
p835
S'158'
p836
tp837
a(S'95+63'
p838
S'158'
p839
tp840
a(S'19+94'
p841
S'113'
p842
tp843
a(S'20+25'
p844
S'45'
p845
tp846
a(S'11+73'
p847
S'84'
p848
tp849
a(S'54+93'
p850
S'147'
p851
tp852
a(S'32+26'
p853
S'58'
p854
tp855
a(S'82+11'
p856
S'93'
p857
tp858
a(S'46+99'
p859
S'145'
p860
tp861
a(S'69+35'
p862
S'104'
p863
tp864
a(S'80+85'
p865
S'165'
p866
tp867
a(S'40+95'
p868
S'135'
p869
tp870
a(S'3+3'
p871
S'6'
p872
tp873
a(S'74+23'
p874
S'97'
p875
tp876
a(S'26+4'
p877
S'30'
p878
tp879
a(S'76+59'
p880
S'135'
p881
tp882
a(S'84+45'
p883
S'129'
p884
tp885
a(S'46+27'
p886
S'73'
p887
tp888
a(S'98+33'
p889
S'131'
p890
tp891
a(S'75+91'
p892
S'166'
p893
tp894
a(S'58+42'
p895
S'100'
p896
tp897
a(S'55+18'
p898
S'73'
p899
tp900
a(S'85+7'
p901
S'92'
p902
tp903
a(S'0+64'
p904
S'64'
p905
tp906
a(S'74+52'
p907
S'126'
p908
tp909
a(S'94+34'
p910
S'128'
p911
tp912
a(S'37+70'
p913
S'107'
p914
tp915
a(S'92+50'
p916
S'142'
p917
tp918
a(S'54+54'
p919
S'108'
p920
tp921
a(S'75+87'
p922
S'162'
p923
tp924
a(S'21+26'
p925
S'47'
p926
tp927
a(S'5+96'
p928
S'101'
p929
tp930
a(S'21+20'
p931
S'41'
p932
tp933
a(S'86+71'
p934
S'157'
p935
tp936
a(S'1+12'
p937
S'13'
p938
tp939
a(S'23+27'
p940
S'50'
p941
tp942
a(S'88+33'
p943
S'121'
p944
tp945
a(S'7+38'
p946
S'45'
p947
tp948
a(S'23+63'
p949
S'86'
p950
tp951
a(S'44+40'
p952
S'84'
p953
tp954
a(S'67+46'
p955
S'113'
p956
tp957
a(S'3+59'
p958
S'62'
p959
tp960
a(S'63+25'
p961
S'88'
p962
tp963
a(S'43+17'
p964
S'60'
p965
tp966
a(S'27+46'
p967
S'73'
p968
tp969
a(S'22+22'
p970
S'44'
p971
tp972
a(S'66+94'
p973
S'160'
p974
tp975
a(S'16+5'
p976
S'21'
p977
tp978
a(S'56+25'
p979
S'81'
p980
tp981
a(S'54+47'
p982
S'101'
p983
tp984
a(S'65+5'
p985
S'70'
p986
tp987
a(S'58+33'
p988
S'91'
p989
tp990
a(S'58+21'
p991
S'79'
p992
tp993
a(S'6+74'
p994
S'80'
p995
tp996
a(S'61+13'
p997
S'74'
p998
tp999
a(S'0+59'
p1000
S'59'
p1001
tp1002
a(S'89+23'
p1003
S'112'
p1004
tp1005
a(S'69+42'
p1006
S'111'
p1007
tp1008
a(S'66+79'
p1009
S'145'
p1010
tp1011
a(S'68+88'
p1012
S'156'
p1013
tp1014
a(S'45+36'
p1015
S'81'
p1016
tp1017
a(S'87+77'
p1018
S'164'
p1019
tp1020
a(S'86+80'
p1021
S'166'
p1022
tp1023
a(S'6+28'
p1024
S'34'
p1025
tp1026
a(S'27+89'
p1027
S'116'
p1028
tp1029
a(S'4+41'
p1030
S'45'
p1031
tp1032
a(S'50+39'
p1033
S'89'
p1034
tp1035
a(S'81+15'
p1036
S'96'
p1037
tp1038
a(S'68+18'
p1039
S'86'
p1040
tp1041
a(S'35+69'
p1042
S'104'
p1043
tp1044
a(S'22+90'
p1045
S'112'
p1046
tp1047
a(S'97+14'
p1048
S'111'
p1049
tp1050
a(S'50+24'
p1051
S'74'
p1052
tp1053
a(S'27+99'
p1054
S'126'
p1055
tp1056
a(S'48+16'
p1057
S'64'
p1058
tp1059
a(S'2+48'
p1060
S'50'
p1061
tp1062
a(S'35+55'
p1063
S'90'
p1064
tp1065
a(S'24+74'
p1066
S'98'
p1067
tp1068
a(S'37+33'
p1069
S'70'
p1070
tp1071
a(S'76+59'
p1072
S'135'
p1073
tp1074
a(S'91+45'
p1075
S'136'
p1076
tp1077
a(S'14+53'
p1078
S'67'
p1079
tp1080
a(S'29+74'
p1081
S'103'
p1082
tp1083
a(S'42+46'
p1084
S'88'
p1085
tp1086
a(S'56+93'
p1087
S'149'
p1088
tp1089
a(S'73+35'
p1090
S'108'
p1091
tp1092
a(S'67+8'
p1093
S'75'
p1094
tp1095
a(S'85+69'
p1096
S'154'
p1097
tp1098
a(S'40+27'
p1099
S'67'
p1100
tp1101
a(S'78+67'
p1102
S'145'
p1103
tp1104
a(S'64+50'
p1105
S'114'
p1106
tp1107
a(S'51+7'
p1108
S'58'
p1109
tp1110
a(S'1+49'
p1111
S'50'
p1112
tp1113
a(S'7+1'
p1114
S'8'
p1115
tp1116
a(S'33+86'
p1117
S'119'
p1118
tp1119
a(S'94+66'
p1120
S'160'
p1121
tp1122
a(S'44+94'
p1123
S'138'
p1124
tp1125
a(S'28+96'
p1126
S'124'
p1127
tp1128
a(S'41+81'
p1129
S'122'
p1130
tp1131
a(S'91+27'
p1132
S'118'
p1133
tp1134
a(S'69+73'
p1135
S'142'
p1136
tp1137
a(S'84+14'
p1138
S'98'
p1139
tp1140
a(S'84+92'
p1141
S'176'
p1142
tp1143
a(S'40+31'
p1144
S'71'
p1145
tp1146
a(S'1+36'
p1147
S'37'
p1148
tp1149
a(S'57+65'
p1150
S'122'
p1151
tp1152
a(S'60+33'
p1153
S'93'
p1154
tp1155
a(S'79+90'
p1156
S'169'
p1157
tp1158
a(S'87+37'
p1159
S'124'
p1160
tp1161
a(S'56+39'
p1162
S'95'
p1163
tp1164
a(S'9+48'
p1165
S'57'
p1166
tp1167
a(S'21+59'
p1168
S'80'
p1169
tp1170
a(S'27+83'
p1171
S'110'
p1172
tp1173
a(S'32+9'
p1174
S'41'
p1175
tp1176
a(S'37+79'
p1177
S'116'
p1178
tp1179
a(S'26+75'
p1180
S'101'
p1181
tp1182
a(S'86+41'
p1183
S'127'
p1184
tp1185
a(S'23+25'
p1186
S'48'
p1187
tp1188
a(S'33+36'
p1189
S'69'
p1190
tp1191
a(S'2+66'
p1192
S'68'
p1193
tp1194
a(S'42+79'
p1195
S'121'
p1196
tp1197
a(S'79+0'
p1198
S'79'
p1199
tp1200
a(S'91+24'
p1201
S'115'
p1202
tp1203
a(S'19+95'
p1204
S'114'
p1205
tp1206
a(S'5+68'
p1207
S'73'
p1208
tp1209
a(S'38+1'
p1210
S'39'
p1211
tp1212
a(S'80+2'
p1213
S'82'
p1214
tp1215
a(S'86+87'
p1216
S'173'
p1217
tp1218
a(S'31+62'
p1219
S'93'
p1220
tp1221
a(S'72+42'
p1222
S'114'
p1223
tp1224
a(S'61+51'
p1225
S'112'
p1226
tp1227
a(S'15+67'
p1228
S'82'
p1229
tp1230
a(S'87+78'
p1231
S'165'
p1232
tp1233
a(S'46+53'
p1234
S'99'
p1235
tp1236
a(S'30+94'
p1237
S'124'
p1238
tp1239
a(S'85+17'
p1240
S'102'
p1241
tp1242
a(S'53+97'
p1243
S'150'
p1244
tp1245
a(S'25+19'
p1246
S'44'
p1247
tp1248
a(S'53+22'
p1249
S'75'
p1250
tp1251
a(S'58+76'
p1252
S'134'
p1253
tp1254
a(S'68+18'
p1255
S'86'
p1256
tp1257
a(S'4+67'
p1258
S'71'
p1259
tp1260
a(S'51+33'
p1261
S'84'
p1262
tp1263
a(S'24+77'
p1264
S'101'
p1265
tp1266
a(S'74+87'
p1267
S'161'
p1268
tp1269
a(S'15+99'
p1270
S'114'
p1271
tp1272
a(S'14+54'
p1273
S'68'
p1274
tp1275
a(S'89+64'
p1276
S'153'
p1277
tp1278
a(S'77+9'
p1279
S'86'
p1280
tp1281
a(S'31+74'
p1282
S'105'
p1283
tp1284
a(S'76+10'
p1285
S'86'
p1286
tp1287
a(S'20+51'
p1288
S'71'
p1289
tp1290
a(S'12+24'
p1291
S'36'
p1292
tp1293
a(S'53+55'
p1294
S'108'
p1295
tp1296
a(S'4+12'
p1297
S'16'
p1298
tp1299
a(S'40+13'
p1300
S'53'
p1301
tp1302
a(S'74+36'
p1303
S'110'
p1304
tp1305
a(S'97+8'
p1306
S'105'
p1307
tp1308
a(S'76+4'
p1309
S'80'
p1310
tp1311
a(S'94+15'
p1312
S'109'
p1313
tp1314
a(S'18+9'
p1315
S'27'
p1316
tp1317
a(S'91+84'
p1318
S'175'
p1319
tp1320
a(S'44+46'
p1321
S'90'
p1322
tp1323
a(S'88+90'
p1324
S'178'
p1325
tp1326
a(S'53+70'
p1327
S'123'
p1328
tp1329
a(S'90+49'
p1330
S'139'
p1331
tp1332
a(S'34+66'
p1333
S'100'
p1334
tp1335
a(S'22+26'
p1336
S'48'
p1337
tp1338
a(S'78+69'
p1339
S'147'
p1340
tp1341
a(S'63+63'
p1342
S'126'
p1343
tp1344
a(S'89+61'
p1345
S'150'
p1346
tp1347
a(S'57+96'
p1348
S'153'
p1349
tp1350
a(S'19+26'
p1351
S'45'
p1352
tp1353
a(S'24+35'
p1354
S'59'
p1355
tp1356
a(S'67+94'
p1357
S'161'
p1358
tp1359
a(S'36+57'
p1360
S'93'
p1361
tp1362
a(S'59+7'
p1363
S'66'
p1364
tp1365
a(S'74+79'
p1366
S'153'
p1367
tp1368
a(S'72+6'
p1369
S'78'
p1370
tp1371
a(S'67+98'
p1372
S'165'
p1373
tp1374
a(S'56+49'
p1375
S'105'
p1376
tp1377
a(S'41+93'
p1378
S'134'
p1379
tp1380
a(S'67+86'
p1381
S'153'
p1382
tp1383
a(S'27+92'
p1384
S'119'
p1385
tp1386
a(S'34+44'
p1387
S'78'
p1388
tp1389
a(S'78+6'
p1390
S'84'
p1391
tp1392
a(S'97+22'
p1393
S'119'
p1394
tp1395
a(S'29+6'
p1396
S'35'
p1397
tp1398
a(S'41+72'
p1399
S'113'
p1400
tp1401
a(S'51+14'
p1402
S'65'
p1403
tp1404
a(S'49+48'
p1405
S'97'
p1406
tp1407
a(S'26+28'
p1408
S'54'
p1409
tp1410
a(S'84+40'
p1411
S'124'
p1412
tp1413
a(S'95+31'
p1414
S'126'
p1415
tp1416
a(S'33+95'
p1417
S'128'
p1418
tp1419
a(S'4+22'
p1420
S'26'
p1421
tp1422
a(S'3+4'
p1423
g788
tp1424
a(S'71+75'
p1425
S'146'
p1426
tp1427
a(S'78+72'
p1428
S'150'
p1429
tp1430
a(S'1+80'
p1431
S'81'
p1432
tp1433
a(S'94+75'
p1434
S'169'
p1435
tp1436
a(S'1+77'
p1437
S'78'
p1438
tp1439
a(S'71+8'
p1440
S'79'
p1441
tp1442
a(S'78+96'
p1443
S'174'
p1444
tp1445
a(S'63+45'
p1446
S'108'
p1447
tp1448
a(S'63+89'
p1449
S'152'
p1450
tp1451
a(S'90+59'
p1452
S'149'
p1453
tp1454
a(S'40+54'
p1455
S'94'
p1456
tp1457
a(S'96+39'
p1458
S'135'
p1459
tp1460
a(S'80+92'
p1461
S'172'
p1462
tp1463
a(S'77+45'
p1464
S'122'
p1465
tp1466
a(S'42+98'
p1467
S'140'
p1468
tp1469
a(S'35+1'
p1470
S'36'
p1471
tp1472
a(S'76+34'
p1473
S'110'
p1474
tp1475
a(S'95+16'
p1476
S'111'
p1477
tp1478
a(S'41+98'
p1479
S'139'
p1480
tp1481
a(S'22+18'
p1482
S'40'
p1483
tp1484
a(S'92+76'
p1485
S'168'
p1486
tp1487
a(S'63+12'
p1488
S'75'
p1489
tp1490
a(S'53+77'
p1491
S'130'
p1492
tp1493
a(S'21+37'
p1494
S'58'
p1495
tp1496
a(S'43+89'
p1497
S'132'
p1498
tp1499
a.