(lp0
(S'921*362+331*457'
p1
S'484669'
p2
tp3
a(S'977-216-877+653'
p4
S'537'
p5
tp6
a(S'254-187-871+483'
p7
S'-321'
p8
tp9
a(S'133-681*990-765'
p10
S'-674822'
p11
tp12
a(S'123-67-511-472'
p13
S'-927'
p14
tp15
a(S'772-202+802-2'
p16
S'1370'
p17
tp18
a(S'336-973*853-784'
p19
S'-830417'
p20
tp21
a(S'71-707+663-87'
p22
S'-60'
p23
tp24
a(S'67+789+813*828'
p25
S'674020'
p26
tp27
a(S'634-584*546*927'
p28
S'-295586294'
p29
tp30
a(S'234*529-660+18'
p31
S'123144'
p32
tp33
a(S'821*976+96-456'
p34
S'800936'
p35
tp36
a(S'719-231+91+273'
p37
S'852'
p38
tp39
a(S'128-163+34+13'
p40
S'12'
p41
tp42
a(S'426+718*214*273'
p43
S'41947422'
p44
tp45
a(S'885-571+793*24'
p46
S'19346'
p47
tp48
a(S'329+531+738-715'
p49
S'883'
p50
tp51
a(S'597+441*642+300'
p52
S'284019'
p53
tp54
a(S'709*361-230*894'
p55
S'50329'
p56
tp57
a(S'637+866*317*722'
p58
S'198205521'
p59
tp60
a(S'58-715-198-430'
p61
S'-1285'
p62
tp63
a(S'596+484*121+348'
p64
S'59508'
p65
tp66
a(S'698+826+195-602'
p67
S'1117'
p68
tp69
a(S'482*772+395+26'
p70
S'372525'
p71
tp72
a(S'398+822*710-220'
p73
S'583798'
p74
tp75
a(S'958+7-953*735'
p76
S'-699490'
p77
tp78
a(S'353*441*654*47'
p79
S'4785076674'
p80
tp81
a(S'526+370+974*506'
p82
S'493740'
p83
tp84
a(S'148*845-141*438'
p85
S'63302'
p86
tp87
a(S'623-312-950+313'
p88
S'-326'
p89
tp90
a(S'803+848+429-643'
p91
S'1437'
p92
tp93
a(S'367*107-63+26'
p94
S'39232'
p95
tp96
a(S'820*245*772*92'
p97
S'14268721600'
p98
tp99
a(S'880*88+48*460'
p100
S'99520'
p101
tp102
a(S'678+59+763*615'
p103
S'469982'
p104
tp105
a(S'588-709+601*539'
p106
S'323818'
p107
tp108
a(S'104*190+633-30'
p109
S'20363'
p110
tp111
a(S'218-481-989+788'
p112
S'-464'
p113
tp114
a(S'99+114-109-816'
p115
S'-712'
p116
tp117
a(S'174+340*611-928'
p118
S'206986'
p119
tp120
a(S'669+713+584-556'
p121
S'1410'
p122
tp123
a(S'549*66*410+825'
p124
S'14856765'
p125
tp126
a(S'322*371-50*542'
p127
S'92362'
p128
tp129
a(S'506+968+503*391'
p130
S'198147'
p131
tp132
a(S'219+312+858+352'
p133
S'1741'
p134
tp135
a(S'289-63-409+15'
p136
S'-168'
p137
tp138
a(S'393+948-338*130'
p139
S'-42599'
p140
tp141
a(S'560-375*189*670'
p142
S'-47485690'
p143
tp144
a(S'372-979+112*172'
p145
S'18657'
p146
tp147
a(S'911*23+753+881'
p148
S'22587'
p149
tp150
a(S'792-764*968-504'
p151
S'-739264'
p152
tp153
a(S'930*746*105+346'
p154
S'72847246'
p155
tp156
a(S'277-257+265-958'
p157
S'-673'
p158
tp159
a(S'598+884+569+414'
p160
S'2465'
p161
tp162
a(S'73+267-70-747'
p163
S'-477'
p164
tp165
a(S'358+676*429-434'
p166
S'289928'
p167
tp168
a(S'722-125-884+223'
p169
S'-64'
p170
tp171
a(S'503-169+913*406'
p172
S'371012'
p173
tp174
a(S'180+368*701+993'
p175
S'259141'
p176
tp177
a(S'996+60-705-263'
p178
S'88'
p179
tp180
a(S'769-993*884-558'
p181
S'-877601'
p182
tp183
a(S'817+427+974*784'
p184
S'764860'
p185
tp186
a(S'716+401*497+996'
p187
S'201009'
p188
tp189
a(S'694-254*97-81'
p190
S'-24025'
p191
tp192
a(S'137*964+220*624'
p193
S'269348'
p194
tp195
a(S'85-529+119*875'
p196
S'103681'
p197
tp198
a(S'958+263+107-273'
p199
S'1055'
p200
tp201
a(S'970*99+516+745'
p202
S'97291'
p203
tp204
a(S'764+791-372*447'
p205
S'-164729'
p206
tp207
a(S'813+584*848+991'
p208
S'497036'
p209
tp210
a(S'603*955-921*262'
p211
S'334563'
p212
tp213
a(S'97-282*729+364'
p214
S'-205117'
p215
tp216
a(S'262*447*182*559'
p217
S'11914944132'
p218
tp219
a(S'369*604+87+930'
p220
S'223893'
p221
tp222
a(S'733+903-270+399'
p223
S'1765'
p224
tp225
a(S'832*605+516-243'
p226
S'503633'
p227
tp228
a(S'401*522+394*662'
p229
S'470150'
p230
tp231
a(S'142*62-797-33'
p232
S'7974'
p233
tp234
a(S'491-770-19*23'
p235
S'-716'
p236
tp237
a(S'867-105*914+598'
p238
S'-94505'
p239
tp240
a(S'37+221+219*479'
p241
S'105159'
p242
tp243
a(S'227+60-219*143'
p244
S'-31030'
p245
tp246
a(S'916+544+315+99'
p247
S'1874'
p248
tp249
a(S'921-275-230-55'
p250
S'361'
p251
tp252
a(S'106-283+56-45'
p253
S'-166'
p254
tp255
a(S'324+125-57-325'
p256
S'67'
p257
tp258
a(S'882+650*565+406'
p259
S'368538'
p260
tp261
a(S'693-362-113+678'
p262
S'896'
p263
tp264
a(S'763+121-591-395'
p265
S'-102'
p266
tp267
a(S'880-959+605-633'
p268
S'-107'
p269
tp270
a(S'406+73+506-55'
p271
S'930'
p272
tp273
a(S'979-466-268-88'
p274
S'157'
p275
tp276
a(S'582*24-452-247'
p277
S'13269'
p278
tp279
a(S'687-151+263-440'
p280
S'359'
p281
tp282
a(S'587+486-201*61'
p283
S'-11188'
p284
tp285
a(S'373-709+18-704'
p286
S'-1022'
p287
tp288
a(S'943-888+663+385'
p289
S'1103'
p290
tp291
a(S'711+386+749-16'
p292
S'1830'
p293
tp294
a(S'883*362+270-389'
p295
S'319527'
p296
tp297
a(S'331*252*646*111'
p298
S'5981140872'
p299
tp300
a(S'113*589+463+306'
p301
S'67326'
p302
tp303
a(S'450-363*347-851'
p304
S'-126362'
p305
tp306
a(S'550*416+658+903'
p307
S'230361'
p308
tp309
a(S'834-576+571+913'
p310
S'1742'
p311
tp312
a(S'598*592*103+377'
p313
S'36464025'
p314
tp315
a(S'894-354*458+53'
p316
S'-161185'
p317
tp318
a(S'171-336*9*741'
p319
S'-2240613'
p320
tp321
a(S'828-709+265-334'
p322
S'50'
p323
tp324
a(S'717-311+461-498'
p325
S'369'
p326
tp327
a(S'56-160-833*449'
p328
S'-374121'
p329
tp330
a(S'984+789+775-926'
p331
S'1622'
p332
tp333
a(S'768*307-927+126'
p334
S'234975'
p335
tp336
a(S'541-96+270+677'
p337
S'1392'
p338
tp339
a(S'290*738+356-947'
p340
S'213429'
p341
tp342
a(S'615+158-242+348'
p343
S'879'
p344
tp345
a(S'23*469+798*340'
p346
S'282107'
p347
tp348
a(S'867*157-929-91'
p349
S'135099'
p350
tp351
a(S'63-331-629+664'
p352
S'-233'
p353
tp354
a(S'993+785-720+754'
p355
S'1812'
p356
tp357
a(S'635*327-500+394'
p358
S'207539'
p359
tp360
a(S'175-514-166-247'
p361
S'-752'
p362
tp363
a(S'921+669+602*398'
p364
S'241186'
p365
tp366
a(S'64-674-363+552'
p367
S'-421'
p368
tp369
a(S'886+12*538*549'
p370
S'3545230'
p371
tp372
a(S'688*288-139*554'
p373
S'121138'
p374
tp375
a(S'103*451-862-721'
p376
S'44870'
p377
tp378
a(S'874-555-549-346'
p379
S'-576'
p380
tp381
a(S'356*348*149+298'
p382
S'18459610'
p383
tp384
a(S'850+641+459-858'
p385
S'1092'
p386
tp387
a(S'193+71-453*605'
p388
S'-273801'
p389
tp390
a(S'935*384-310-768'
p391
S'357962'
p392
tp393
a(S'87+74-353*363'
p394
S'-127978'
p395
tp396
a(S'572+663-407+556'
p397
S'1384'
p398
tp399
a(S'449+124+852+152'
p400
S'1577'
p401
tp402
a(S'165-78+193-771'
p403
S'-491'
p404
tp405
a(S'94*321*783*797'
p406
S'18830114874'
p407
tp408
a(S'804-667*703+200'
p409
S'-467897'
p410
tp411
a(S'345+467-964*300'
p412
S'-288388'
p413
tp414
a(S'955*713+619+158'
p415
S'681692'
p416
tp417
a(S'800+158+778-475'
p418
S'1261'
p419
tp420
a(S'368+588*401+452'
p421
S'236608'
p422
tp423
a(S'271+860-916*889'
p424
S'-813193'
p425
tp426
a(S'577+288+762+165'
p427
S'1792'
p428
tp429
a(S'681*439*915*711'
p430
S'194492261835'
p431
tp432
a(S'329*751*370*82'
p433
S'7496376860'
p434
tp435
a(S'550*331*252-180'
p436
S'45876420'
p437
tp438
a(S'710+234-49-184'
p439
S'711'
p440
tp441
a(S'162*997*615+896'
p442
S'99332006'
p443
tp444
a(S'982-569-630*81'
p445
S'-50617'
p446
tp447
a(S'572-101*925*873'
p448
S'-81559453'
p449
tp450
a(S'215*175-277+318'
p451
S'37666'
p452
tp453
a(S'429+864-406-228'
p454
S'659'
p455
tp456
a(S'248+784+534-161'
p457
S'1405'
p458
tp459
a(S'711+399-384-647'
p460
S'79'
p461
tp462
a(S'337+928*744-110'
p463
S'690659'
p464
tp465
a(S'734+250*544+216'
p466
S'136950'
p467
tp468
a(S'857-104-821*935'
p469
S'-766882'
p470
tp471
a(S'385+949*481-712'
p472
S'456142'
p473
tp474
a(S'793*488+189*917'
p475
S'560297'
p476
tp477
a(S'335+184+749*600'
p478
S'449919'
p479
tp480
a(S'166-459*433+708'
p481
S'-197873'
p482
tp483
a(S'588+74-504-858'
p484
S'-700'
p485
tp486
a(S'650-794+583+45'
p487
S'484'
p488
tp489
a(S'448+114+937+18'
p490
S'1517'
p491
tp492
a(S'729-251*679-226'
p493
S'-169926'
p494
tp495
a(S'530+820*701+521'
p496
S'575871'
p497
tp498
a(S'653*978-994-957'
p499
S'636683'
p500
tp501
a(S'146+688-817+279'
p502
S'296'
p503
tp504
a(S'866-365*776*123'
p505
S'-34837654'
p506
tp507
a(S'907+701*481+916'
p508
S'339004'
p509
tp510
a(S'83+400-94-582'
p511
S'-193'
p512
tp513
a(S'790*143+442-174'
p514
S'113238'
p515
tp516
a(S'158-226-604+639'
p517
S'-33'
p518
tp519
a(S'720+181*412*75'
p520
S'5593620'
p521
tp522
a(S'654*917-119+685'
p523
S'600284'
p524
tp525
a(S'861*768-497+596'
p526
S'661347'
p527
tp528
a(S'615-452+822-936'
p529
S'49'
p530
tp531
a(S'323-190-367-549'
p532
S'-783'
p533
tp534
a(S'33+910*835+659'
p535
S'760542'
p536
tp537
a(S'47+716+757-438'
p538
S'1082'
p539
tp540
a(S'43+135-809-687'
p541
S'-1318'
p542
tp543
a(S'909+870-334+849'
p544
S'2294'
p545
tp546
a(S'516+523*59+279'
p547
S'31652'
p548
tp549
a(S'519*680-288*626'
p550
S'172632'
p551
tp552
a(S'565-318+543*103'
p553
S'56176'
p554
tp555
a(S'14+978*169*317'
p556
S'52394408'
p557
tp558
a(S'205*566+145*356'
p559
S'167650'
p560
tp561
a(S'480+992-290+320'
p562
S'1502'
p563
tp564
a(S'436+621-405*193'
p565
S'-77108'
p566
tp567
a(S'206-988-562-966'
p568
S'-2310'
p569
tp570
a(S'740+739-416*180'
p571
S'-73401'
p572
tp573
a(S'566+577+749+684'
p574
S'2576'
p575
tp576
a(S'276-268+362-24'
p577
S'346'
p578
tp579
a(S'847*488*692+27'
p580
S'286028539'
p581
tp582
a(S'685-214-545*698'
p583
S'-379939'
p584
tp585
a(S'859*99+585-251'
p586
S'85375'
p587
tp588
a(S'645+331+669-654'
p589
S'991'
p590
tp591
a(S'96*315+872*405'
p592
S'383400'
p593
tp594
a(S'989+64-436+695'
p595
S'1312'
p596
tp597
a(S'822-444-618+774'
p598
S'534'
p599
tp600
a(S'999-695-882-740'
p601
S'-1318'
p602
tp603
a(S'87*851-743*229'
p604
S'-96110'
p605
tp606
a(S'267-477+4-29'
p607
S'-235'
p608
tp609
a(S'533-606+58*630'
p610
S'36467'
p611
tp612
a(S'517*998-153+839'
p613
S'516652'
p614
tp615
a(S'466-991-909*829'
p616
S'-754086'
p617
tp618
a(S'731-667+517+32'
p619
S'613'
p620
tp621
a(S'483-443-982-230'
p622
S'-1172'
p623
tp624
a(S'260-758*680*621'
p625
S'-320087980'
p626
tp627
a(S'625+285+453-919'
p628
S'444'
p629
tp630
a(S'539+324*311-495'
p631
S'100808'
p632
tp633
a(S'434+68*560-787'
p634
S'37727'
p635
tp636
a(S'410-984*472+879'
p637
S'-463159'
p638
tp639
a(S'434+768+194+150'
p640
S'1546'
p641
tp642
a(S'79*26*628*8'
p643
S'10319296'
p644
tp645
a(S'428+564*165*166'
p646
S'15448388'
p647
tp648
a(S'481+162-557+791'
p649
S'877'
p650
tp651
a(S'99+798+193*643'
p652
S'124996'
p653
tp654
a(S'754-754+113*645'
p655
S'72885'
p656
tp657
a(S'579*873*172-253'
p658
S'86940071'
p659
tp660
a(S'983-352+44*148'
p661
S'7143'
p662
tp663
a(S'125*200*31*835'
p664
S'647125000'
p665
tp666
a(S'149+935+363-212'
p667
S'1235'
p668
tp669
a(S'722-96*739*329'
p670
S'-23339854'
p671
tp672
a(S'490*806-105*597'
p673
S'332255'
p674
tp675
a(S'966+741-38*994'
p676
S'-36065'
p677
tp678
a(S'124*900-855-874'
p679
S'109871'
p680
tp681
a(S'148-832+853-22'
p682
S'147'
p683
tp684
a(S'547+95-59*110'
p685
S'-5848'
p686
tp687
a(S'878*599+27+808'
p688
S'526757'
p689
tp690
a(S'603+969-526-534'
p691
S'512'
p692
tp693
a(S'18*770-369-588'
p694
S'12903'
p695
tp696
a(S'571-641*317-591'
p697
S'-203217'
p698
tp699
a(S'118+118+159*89'
p700
S'14387'
p701
tp702
a(S'633+620-146+96'
p703
S'1203'
p704
tp705
a(S'660+450-356-631'
p706
S'123'
p707
tp708
a(S'914*383+565-139'
p709
S'350488'
p710
tp711
a(S'117-589*804-677'
p712
S'-474116'
p713
tp714
a(S'466*222-797-777'
p715
S'101878'
p716
tp717
a(S'916-792+167+495'
p718
S'786'
p719
tp720
a(S'642+79*88+121'
p721
S'7715'
p722
tp723
a(S'894+219+388+762'
p724
S'2263'
p725
tp726
a(S'261-775+865+778'
p727
S'1129'
p728
tp729
a(S'325+946*983+106'
p730
S'930349'
p731
tp732
a(S'731-401*438-774'
p733
S'-175681'
p734
tp735
a(S'863-856+37-214'
p736
S'-170'
p737
tp738
a(S'814+809+871+927'
p739
S'3421'
p740
tp741
a(S'842+265*776-879'
p742
S'205603'
p743
tp744
a(S'533+713-149*53'
p745
S'-6651'
p746
tp747
a(S'115*484*917*185'
p748
S'9442440700'
p749
tp750
a(S'812-934+337-12'
p751
S'203'
p752
tp753
a(S'447-519*480-902'
p754
S'-249575'
p755
tp756
a(S'502*125+445-534'
p757
S'62661'
p758
tp759
a(S'413+853*225+815'
p760
S'193153'
p761
tp762
a(S'54*919+864+353'
p763
S'50843'
p764
tp765
a(S'779+138*729-311'
p766
S'101070'
p767
tp768
a(S'49-678*397*40'
p769
S'-10766591'
p770
tp771
a(S'5+679*744*556'
p772
S'280877861'
p773
tp774
a(S'768*693+773+593'
p775
S'533590'
p776
tp777
a(S'212-252*726*757'
p778
S'-138494452'
p779
tp780
a(S'411*893+681*56'
p781
S'405159'
p782
tp783
a(S'46+991-740+468'
p784
S'765'
p785
tp786
a(S'857*149+517*126'
p787
S'192835'
p788
tp789
a(S'475-45+482+25'
p790
S'937'
p791
tp792
a(S'822+550*202+859'
p793
S'112781'
p794
tp795
a(S'64+542-83-970'
p796
S'-447'
p797
tp798
a(S'419+331+170-776'
p799
S'144'
p800
tp801
a(S'456-34*644-82'
p802
S'-21522'
p803
tp804
a(S'780*154*430+995'
p805
S'51652595'
p806
tp807
a(S'673*305*182-513'
p808
S'37357717'
p809
tp810
a(S'704+604+242-114'
p811
S'1436'
p812
tp813
a(S'39-746+790-327'
p814
S'-244'
p815
tp816
a(S'127-772+748-572'
p817
S'-469'
p818
tp819
a(S'575+80-303+486'
p820
S'838'
p821
tp822
a(S'95+110+574*362'
p823
S'207993'
p824
tp825
a(S'594+775*117*639'
p826
S'57941919'
p827
tp828
a(S'666*891*848-580'
p829
S'503207708'
p830
tp831
a(S'461-11+390-965'
p832
S'-125'
p833
tp834
a(S'221*929*145-449'
p835
S'29769356'
p836
tp837
a(S'928-556*586+158'
p838
S'-324730'
p839
tp840
a(S'899-157*65+440'
p841
S'-8866'
p842
tp843
a(S'227+564+478+280'
p844
S'1549'
p845
tp846
a(S'548-245+137*495'
p847
S'68118'
p848
tp849
a(S'413-782+125*791'
p850
S'98506'
p851
tp852
a(S'807*198+277-193'
p853
S'159870'
p854
tp855
a(S'934-39*775-484'
p856
S'-29775'
p857
tp858
a(S'789-174*369+666'
p859
S'-62751'
p860
tp861
a(S'433+10*358-204'
p862
S'3809'
p863
tp864
a(S'680-661*361-253'
p865
S'-238194'
p866
tp867
a(S'902+315+111+304'
p868
S'1632'
p869
tp870
a(S'843+941-539*757'
p871
S'-406239'
p872
tp873
a(S'510-993-125-375'
p874
S'-983'
p875
tp876
a(S'913*663+406+320'
p877
S'606045'
p878
tp879
a(S'850-562*370*223'
p880
S'-46369770'
p881
tp882
a(S'873-692+388*794'
p883
S'308253'
p884
tp885
a(S'569*280+884*174'
p886
S'313136'
p887
tp888
a(S'670*871+515+696'
p889
S'584781'
p890
tp891
a(S'233*141+289*71'
p892
S'53372'
p893
tp894
a(S'236-818*213*658'
p895
S'-114645736'
p896
tp897
a(S'661-432-25-968'
p898
S'-764'
p899
tp900
a(S'956*544+691-974'
p901
S'519781'
p902
tp903
a(S'814+935-146+784'
p904
S'2387'
p905
tp906
a(S'127+101*654+469'
p907
S'66650'
p908
tp909
a(S'780+377*167+279'
p910
S'64018'
p911
tp912
a(S'935-332+514-873'
p913
S'244'
p914
tp915
a(S'436-208-267-460'
p916
S'-499'
p917
tp918
a(S'222*375-273+662'
p919
S'83639'
p920
tp921
a(S'470*207+532+954'
p922
S'98776'
p923
tp924
a(S'939+56*705*51'
p925
S'2014419'
p926
tp927
a(S'185+197-383-725'
p928
S'-726'
p929
tp930
a(S'910-716-365+907'
p931
S'736'
p932
tp933
a(S'826+771*460+87'
p934
S'355573'
p935
tp936
a(S'668*647-943-539'
p937
S'430714'
p938
tp939
a(S'960*734*710*618'
p940
S'309181939200'
p941
tp942
a(S'870*527*964+375'
p943
S'441984735'
p944
tp945
a(S'896*617*237+745'
p946
S'131021929'
p947
tp948
a(S'949+681*867+21'
p949
S'591397'
p950
tp951
a(S'853+718+48-305'
p952
S'1314'
p953
tp954
a(S'739-394+372-967'
p955
S'-250'
p956
tp957
a(S'795*161*878*353'
p958
S'39670002330'
p959
tp960
a(S'768+561+526-105'
p961
S'1750'
p962
tp963
a(S'53-776+930-991'
p964
S'-784'
p965
tp966
a(S'553*639-217+986'
p967
S'354136'
p968
tp969
a(S'460-229*207*812'
p970
S'-38490776'
p971
tp972
a(S'977*304-300+377'
p973
S'297085'
p974
tp975
a(S'555*295-318*301'
p976
S'68007'
p977
tp978
a(S'670*211-68+942'
p979
S'142244'
p980
tp981
a(S'199*204-732+845'
p982
S'40709'
p983
tp984
a(S'57+934-260-704'
p985
S'27'
p986
tp987
a(S'698-739*148*534'
p988
S'-58403950'
p989
tp990
a(S'422*96-621+491'
p991
S'40382'
p992
tp993
a(S'283*321+15*169'
p994
S'93378'
p995
tp996
a(S'876+948-326*382'
p997
S'-122708'
p998
tp999
a(S'885-621-703*686'
p1000
S'-481994'
p1001
tp1002
a(S'581*818*370-187'
p1003
S'175845273'
p1004
tp1005
a(S'231*895*873+766'
p1006
S'180489151'
p1007
tp1008
a(S'297*730-848*526'
p1009
S'-229238'
p1010
tp1011
a(S'494+194*644*622'
p1012
S'77710686'
p1013
tp1014
a(S'759-650*758+664'
p1015
S'-491277'
p1016
tp1017
a(S'439*810-324+702'
p1018
S'355968'
p1019
tp1020
a(S'247+956-15+332'
p1021
S'1520'
p1022
tp1023
a(S'997*169-643*734'
p1024
S'-303469'
p1025
tp1026
a(S'930*537+165+745'
p1027
S'500320'
p1028
tp1029
a(S'956-429*518-353'
p1030
S'-221619'
p1031
tp1032
a(S'626+620+897*554'
p1033
S'498184'
p1034
tp1035
a(S'563+767+246+961'
p1036
S'2537'
p1037
tp1038
a(S'55-153-301*977'
p1039
S'-294175'
p1040
tp1041
a(S'758-740-961-748'
p1042
S'-1691'
p1043
tp1044
a(S'473+968+320*935'
p1045
S'300641'
p1046
tp1047
a(S'341*193-204+769'
p1048
S'66378'
p1049
tp1050
a(S'335-554-356-783'
p1051
S'-1358'
p1052
tp1053
a(S'178*246+806*255'
p1054
S'249318'
p1055
tp1056
a(S'881-925*237*844'
p1057
S'-185025019'
p1058
tp1059
a(S'571-837*400+713'
p1060
S'-333516'
p1061
tp1062
a(S'551+232-597-294'
p1063
S'-108'
p1064
tp1065
a(S'251*202-173*928'
p1066
S'-109842'
p1067
tp1068
a(S'247-143*784*834'
p1069
S'-93501161'
p1070
tp1071
a(S'854+661*930*42'
p1072
S'25819514'
p1073
tp1074
a(S'852-270*617+213'
p1075
S'-165525'
p1076
tp1077
a(S'951-744*199-377'
p1078
S'-147482'
p1079
tp1080
a(S'155*216+805-910'
p1081
S'33375'
p1082
tp1083
a(S'392*60+118*203'
p1084
S'47474'
p1085
tp1086
a(S'619-304+383*200'
p1087
S'76915'
p1088
tp1089
a(S'866*300-900*837'
p1090
S'-493500'
p1091
tp1092
a(S'923+208*364*238'
p1093
S'18020379'
p1094
tp1095
a(S'824*300+921*417'
p1096
S'631257'
p1097
tp1098
a(S'458+962-441*153'
p1099
S'-66053'
p1100
tp1101
a(S'370-928-108*23'
p1102
S'-3042'
p1103
tp1104
a(S'190*432-155-274'
p1105
S'81651'
p1106
tp1107
a(S'583-540+340*670'
p1108
S'227843'
p1109
tp1110
a(S'686*863-273-485'
p1111
S'591260'
p1112
tp1113
a(S'311+71-964+131'
p1114
S'-451'
p1115
tp1116
a(S'34+174+819+949'
p1117
S'1976'
p1118
tp1119
a(S'546*798+509+320'
p1120
S'436537'
p1121
tp1122
a(S'232*730-757+808'
p1123
S'169411'
p1124
tp1125
a(S'103+896+865-295'
p1126
S'1569'
p1127
tp1128
a(S'171-976-538*859'
p1129
S'-462947'
p1130
tp1131
a(S'507*622+946*393'
p1132
S'687132'
p1133
tp1134
a(S'231-552-635*41'
p1135
S'-26356'
p1136
tp1137
a(S'730*265-170*356'
p1138
S'132930'
p1139
tp1140
a(S'241*368+934-31'
p1141
S'89591'
p1142
tp1143
a(S'486*308*147+816'
p1144
S'22004952'
p1145
tp1146
a(S'62-561+338*655'
p1147
S'220891'
p1148
tp1149
a(S'691+734-515+474'
p1150
S'1384'
p1151
tp1152
a(S'159*819*547-799'
p1153
S'71230088'
p1154
tp1155
a(S'101*27-983*528'
p1156
S'-516297'
p1157
tp1158
a(S'271-701*933+214'
p1159
S'-653548'
p1160
tp1161
a(S'464+223*421-680'
p1162
S'93667'
p1163
tp1164
a(S'652*457*880-949'
p1165
S'262207371'
p1166
tp1167
a(S'265*167+833*402'
p1168
S'379121'
p1169
tp1170
a(S'715+506*182+42'
p1171
S'92849'
p1172
tp1173
a(S'53*99+268+309'
p1174
S'5824'
p1175
tp1176
a(S'83+880*845-470'
p1177
S'743213'
p1178
tp1179
a(S'225-686-790*650'
p1180
S'-513961'
p1181
tp1182
a(S'166-37*439*525'
p1183
S'-8527409'
p1184
tp1185
a(S'787-800-49+996'
p1186
S'934'
p1187
tp1188
a(S'684-625*851*595'
p1189
S'-316464941'
p1190
tp1191
a(S'915*346*309+764'
p1192
S'97827074'
p1193
tp1194
a(S'835-8+804+258'
p1195
S'1889'
p1196
tp1197
a(S'513-783*887*794'
p1198
S'-551449161'
p1199
tp1200
a(S'982+493*31+119'
p1201
S'16384'
p1202
tp1203
a(S'432-742*134-681'
p1204
S'-99677'
p1205
tp1206
a(S'605*901-280+868'
p1207
S'545693'
p1208
tp1209
a(S'25*591-981-222'
p1210
S'13572'
p1211
tp1212
a(S'573+942-446*455'
p1213
S'-201415'
p1214
tp1215
a(S'252*61+807+3'
p1216
S'16182'
p1217
tp1218
a(S'269*926-101*985'
p1219
S'149609'
p1220
tp1221
a(S'304*180+564-443'
p1222
S'54841'
p1223
tp1224
a(S'39-572-231*130'
p1225
S'-30563'
p1226
tp1227
a(S'940+292*663*165'
p1228
S'31944280'
p1229
tp1230
a(S'966*134+751-465'
p1231
S'129730'
p1232
tp1233
a(S'707+276*811*78'
p1234
S'17459915'
p1235
tp1236
a(S'769-344+706*347'
p1237
S'245407'
p1238
tp1239
a(S'79-486-503+947'
p1240
S'37'
p1241
tp1242
a(S'715*484-48*948'
p1243
S'300556'
p1244
tp1245
a(S'32+411+100+287'
p1246
S'830'
p1247
tp1248
a(S'770-374-419*698'
p1249
S'-292066'
p1250
tp1251
a(S'349-899+95-777'
p1252
S'-1232'
p1253
tp1254
a(S'151-876*940*887'
p1255
S'-730391129'
p1256
tp1257
a(S'155*510+658+116'
p1258
S'79824'
p1259
tp1260
a(S'852*125-191-113'
p1261
S'106196'
p1262
tp1263
a(S'121+572-837*493'
p1264
S'-411948'
p1265
tp1266
a(S'980+588+0*172'
p1267
S'1568'
p1268
tp1269
a(S'195-81+127-234'
p1270
S'7'
p1271
tp1272
a(S'261+424+857*655'
p1273
S'562020'
p1274
tp1275
a(S'21*612+811*945'
p1276
S'779247'
p1277
tp1278
a(S'559*813-124+992'
p1279
S'455335'
p1280
tp1281
a(S'398*340+824*950'
p1282
S'918120'
p1283
tp1284
a(S'144*78+87*598'
p1285
S'63258'
p1286
tp1287
a(S'520+717-687*924'
p1288
S'-633551'
p1289
tp1290
a(S'429*689+728*64'
p1291
S'342173'
p1292
tp1293
a(S'657+118+440+914'
p1294
S'2129'
p1295
tp1296
a(S'611*786-526*912'
p1297
S'534'
p1298
tp1299
a(S'560+213-0-962'
p1300
S'-189'
p1301
tp1302
a(S'141-116*25-237'
p1303
S'-2996'
p1304
tp1305
a(S'446+833-662+848'
p1306
S'1465'
p1307
tp1308
a(S'580-526*441-597'
p1309
S'-231983'
p1310
tp1311
a(S'956+611-241-571'
p1312
S'755'
p1313
tp1314
a(S'613+91-577+269'
p1315
S'396'
p1316
tp1317
a(S'378-968+652*908'
p1318
S'591426'
p1319
tp1320
a(S'426+115-45*923'
p1321
S'-40994'
p1322
tp1323
a(S'844-265+315+135'
p1324
S'1029'
p1325
tp1326
a(S'346-522-434*999'
p1327
S'-433742'
p1328
tp1329
a(S'167*474-121-344'
p1330
S'78693'
p1331
tp1332
a(S'957*762-237-596'
p1333
S'728401'
p1334
tp1335
a(S'308-619-195-661'
p1336
S'-1167'
p1337
tp1338
a(S'31-655*812+507'
p1339
S'-531322'
p1340
tp1341
a(S'480*905-991+546'
p1342
S'433955'
p1343
tp1344
a(S'256+30*684*214'
p1345
S'4391536'
p1346
tp1347
a(S'916+249+448+967'
p1348
S'2580'
p1349
tp1350
a(S'275+879*349-28'
p1351
S'307018'
p1352
tp1353
a(S'953-782*63+538'
p1354
S'-47775'
p1355
tp1356
a(S'725+786+325*34'
p1357
S'12561'
p1358
tp1359
a(S'550+333*628*820'
p1360
S'171482230'
p1361
tp1362
a(S'450+289-838+198'
p1363
S'99'
p1364
tp1365
a(S'239*421-943+671'
p1366
S'100347'
p1367
tp1368
a(S'191+720*258-241'
p1369
S'185710'
p1370
tp1371
a(S'74*931*949+28'
p1372
S'65380434'
p1373
tp1374
a(S'505-849*915+582'
p1375
S'-775748'
p1376
tp1377
a(S'756-981*453-87'
p1378
S'-443724'
p1379
tp1380
a(S'47+38-243*319'
p1381
S'-77432'
p1382
tp1383
a(S'718-466-829+54'
p1384
S'-523'
p1385
tp1386
a(S'756+574+609+128'
p1387
S'2067'
p1388
tp1389
a(S'6*807+841*991'
p1390
S'838273'
p1391
tp1392
a(S'599-400-640-758'
p1393
S'-1199'
p1394
tp1395
a(S'335-106-502-312'
p1396
S'-585'
p1397
tp1398
a(S'383-676+448*429'
p1399
S'191899'
p1400
tp1401
a(S'718+160+612-987'
p1402
S'503'
p1403
tp1404
a(S'625*354*187*513'
p1405
S'21224733750'
p1406
tp1407
a(S'556*256*252-578'
p1408
S'35868094'
p1409
tp1410
a(S'612*508-253*380'
p1411
S'214756'
p1412
tp1413
a(S'622*808-450+89'
p1414
S'502215'
p1415
tp1416
a(S'523-706-657*616'
p1417
S'-404895'
p1418
tp1419
a(S'770*553+758-181'
p1420
S'426387'
p1421
tp1422
a(S'498-426-76-667'
p1423
S'-671'
p1424
tp1425
a(S'305*379-422-2'
p1426
S'115171'
p1427
tp1428
a(S'850+815+366+263'
p1429
S'2294'
p1430
tp1431
a(S'320-673-102*479'
p1432
S'-49211'
p1433
tp1434
a(S'117+687+552+125'
p1435
S'1481'
p1436
tp1437
a(S'584*204-673-378'
p1438
S'118085'
p1439
tp1440
a(S'294*87-548+902'
p1441
S'25932'
p1442
tp1443
a(S'815+469-355+41'
p1444
S'970'
p1445
tp1446
a(S'454+574+783+545'
p1447
S'2356'
p1448
tp1449
a(S'231+792*519*756'
p1450
S'310752519'
p1451
tp1452
a(S'344+975*762-750'
p1453
S'742544'
p1454
tp1455
a(S'861*741+569+892'
p1456
S'639462'
p1457
tp1458
a(S'113-143+197*436'
p1459
S'85862'
p1460
tp1461
a(S'299+41-821-833'
p1462
S'-1314'
p1463
tp1464
a(S'753-927-726-184'
p1465
S'-1084'
p1466
tp1467
a(S'875-604*601+759'
p1468
S'-361370'
p1469
tp1470
a(S'845*799*990*824'
p1471
S'550764442800'
p1472
tp1473
a(S'404*60*939*871'
p1474
S'19825144560'
p1475
tp1476
a(S'386+614*17+932'
p1477
S'11756'
p1478
tp1479
a(S'727*299+78*971'
p1480
S'293111'
p1481
tp1482
a(S'914-80+657+671'
p1483
S'2162'
p1484
tp1485
a(S'612-511+111*129'
p1486
S'14420'
p1487
tp1488
a(S'135+611-0-175'
p1489
S'571'
p1490
tp1491
a(S'895-583-123*393'
p1492
S'-48027'
p1493
tp1494
a(S'907*514*887-545'
p1495
S'413517081'
p1496
tp1497
a(S'537+32*795-66'
p1498
S'25911'
p1499
tp1500
a(S'137-954+485-119'
p1501
S'-451'
p1502
tp1503
a(S'937-229*798+215'
p1504
S'-181590'
p1505
tp1506
a(S'512*492-247+767'
p1507
S'252424'
p1508
tp1509
a(S'301*411-98-259'
p1510
S'123354'
p1511
tp1512
a(S'145*346+274-354'
p1513
S'50090'
p1514
tp1515
a(S'47-866*285-423'
p1516
S'-247186'
p1517
tp1518
a(S'90+436+856*83'
p1519
S'71574'
p1520
tp1521
a(S'311-945+119+669'
p1522
S'154'
p1523
tp1524
a(S'307+660-80+568'
p1525
S'1455'
p1526
tp1527
a(S'355+946-484*207'
p1528
S'-98887'
p1529
tp1530
a(S'726+232-531+325'
p1531
S'752'
p1532
tp1533
a(S'944+692*992*796'
p1534
S'546426288'
p1535
tp1536
a(S'235-655+589+246'
p1537
S'415'
p1538
tp1539
a(S'784-726*831-560'
p1540
S'-603082'
p1541
tp1542
a(S'727+403-67*948'
p1543
S'-62386'
p1544
tp1545
a(S'401*432+318*82'
p1546
S'199308'
p1547
tp1548
a(S'888+151-919*625'
p1549
S'-573336'
p1550
tp1551
a(S'206+930-853+814'
p1552
S'1097'
p1553
tp1554
a(S'826+967*911+332'
p1555
S'882095'
p1556
tp1557
a(S'539+401-293+692'
p1558
S'1339'
p1559
tp1560
a(S'735+75*424+539'
p1561
S'33074'
p1562
tp1563
a(S'177-572-572-560'
p1564
S'-1527'
p1565
tp1566
a(S'132-920+265-268'
p1567
S'-791'
p1568
tp1569
a(S'729-502-700-264'
p1570
S'-737'
p1571
tp1572
a(S'645-217-847+654'
p1573
S'235'
p1574
tp1575
a(S'504-530+858*899'
p1576
S'771316'
p1577
tp1578
a(S'856-906*462+32'
p1579
S'-417684'
p1580
tp1581
a(S'654*743+977+356'
p1582
S'487255'
p1583
tp1584
a(S'719+600*166*213'
p1585
S'21215519'
p1586
tp1587
a(S'523-820+392+316'
p1588
S'411'
p1589
tp1590
a(S'577+134+6-465'
p1591
S'252'
p1592
tp1593
a(S'206*494+727-399'
p1594
S'102092'
p1595
tp1596
a(S'659+921-200*412'
p1597
S'-80820'
p1598
tp1599
a(S'493*80*836*421'
p1600
S'13881144640'
p1601
tp1602
a(S'55*974-2-420'
p1603
S'53148'
p1604
tp1605
a(S'430*942*791*837'
p1606
S'268176859020'
p1607
tp1608
a(S'165+593-259+61'
p1609
S'560'
p1610
tp1611
a(S'974+822+913-633'
p1612
S'2076'
p1613
tp1614
a(S'351+611+857-21'
p1615
S'1798'
p1616
tp1617
a(S'829*918*619+233'
p1618
S'471072851'
p1619
tp1620
a(S'144+651*867+410'
p1621
S'564971'
p1622
tp1623
a(S'926*466+825*43'
p1624
S'466991'
p1625
tp1626
a(S'892+710-228+254'
p1627
S'1628'
p1628
tp1629
a(S'823+146+492*714'
p1630
S'352257'
p1631
tp1632
a(S'344+823+505-374'
p1633
S'1298'
p1634
tp1635
a(S'684*655+551+762'
p1636
S'449333'
p1637
tp1638
a(S'272+203-541+806'
p1639
S'740'
p1640
tp1641
a(S'486*28*46*764'
p1642
S'478239552'
p1643
tp1644
a(S'258-741+452*395'
p1645
S'178057'
p1646
tp1647
a(S'647+84+13+757'
p1648
S'1501'
p1649
tp1650
a(S'23+435-906-90'
p1651
S'-538'
p1652
tp1653
a(S'363-911*370-43'
p1654
S'-336750'
p1655
tp1656
a(S'225*428*711*516'
p1657
S'35330158800'
p1658
tp1659
a(S'188-999+239-783'
p1660
S'-1355'
p1661
tp1662
a(S'977-708-845+665'
p1663
S'89'
p1664
tp1665
a(S'478*444*499*298'
p1666
S'31559322864'
p1667
tp1668
a(S'37*134+165-135'
p1669
S'4988'
p1670
tp1671
a(S'646*824-220-175'
p1672
S'531909'
p1673
tp1674
a(S'768+633+990-685'
p1675
S'1706'
p1676
tp1677
a(S'30+963-984*678'
p1678
S'-666159'
p1679
tp1680
a(S'459+515*395-963'
p1681
S'202921'
p1682
tp1683
a(S'832*410*899-467'
p1684
S'306666413'
p1685
tp1686
a(S'125+342*192-700'
p1687
S'65089'
p1688
tp1689
a(S'968+587-548-660'
p1690
S'347'
p1691
tp1692
a(S'250+597+11+227'
p1693
S'1085'
p1694
tp1695
a(S'922-682*238+736'
p1696
S'-160658'
p1697
tp1698
a(S'637+577+73+151'
p1699
S'1438'
p1700
tp1701
a(S'493-576+71+680'
p1702
S'668'
p1703
tp1704
a(S'171+280+315-678'
p1705
S'88'
p1706
tp1707
a(S'567-409*197+792'
p1708
S'-79214'
p1709
tp1710
a(S'261+921-810-443'
p1711
S'-71'
p1712
tp1713
a(S'131-510*420+416'
p1714
S'-213653'
p1715
tp1716
a(S'792-123-501-812'
p1717
S'-644'
p1718
tp1719
a(S'266+613*611-408'
p1720
S'374401'
p1721
tp1722
a(S'138+769*593*608'
p1723
S'277258474'
p1724
tp1725
a(S'997*931*473-764'
p1726
S'439041147'
p1727
tp1728
a(S'252+57-470*474'
p1729
S'-222471'
p1730
tp1731
a(S'844*168-765+463'
p1732
S'141490'
p1733
tp1734
a(S'235-182*847*409'
p1735
S'-63048751'
p1736
tp1737
a(S'914*336*87+832'
p1738
S'26718880'
p1739
tp1740
a(S'638+46+603-750'
p1741
S'537'
p1742
tp1743
a(S'559+977-253+938'
p1744
S'2221'
p1745
tp1746
a(S'286+741+672+304'
p1747
S'2003'
p1748
tp1749
a(S'951-359*435+80'
p1750
S'-155134'
p1751
tp1752
a(S'243-183+24*918'
p1753
S'22092'
p1754
tp1755
a(S'908-217-974*310'
p1756
S'-301249'
p1757
tp1758
a(S'923-407-611*2'
p1759
S'-706'
p1760
tp1761
a(S'292+350+635-789'
p1762
S'488'
p1763
tp1764
a(S'813-961+474+610'
p1765
S'936'
p1766
tp1767
a(S'256*571*444*904'
p1768
S'58671538176'
p1769
tp1770
a(S'188*753*661*443'
p1771
S'41453195172'
p1772
tp1773
a(S'574-604-923-581'
p1774
S'-1534'
p1775
tp1776
a(S'116+9*630+40'
p1777
S'5826'
p1778
tp1779
a(S'635*512-590-516'
p1780
S'324014'
p1781
tp1782
a(S'297-401-471-792'
p1783
S'-1367'
p1784
tp1785
a(S'419*849*36*464'
p1786
S'5942130624'
p1787
tp1788
a(S'666-368*273-380'
p1789
S'-100178'
p1790
tp1791
a(S'317+638-408*150'
p1792
S'-60245'
p1793
tp1794
a(S'824+919-727+628'
p1795
S'1644'
p1796
tp1797
a(S'203*804*197*779'
p1798
S'25047003156'
p1799
tp1800
a(S'755+620-816*607'
p1801
S'-493937'
p1802
tp1803
a(S'126*244*276*567'
p1804
S'4811190048'
p1805
tp1806
a(S'97-13+726+703'
p1807
S'1513'
p1808
tp1809
a(S'531*884+495+195'
p1810
S'470094'
p1811
tp1812
a(S'17*405-536+727'
p1813
S'7076'
p1814
tp1815
a(S'50*402*166+830'
p1816
S'3337430'
p1817
tp1818
a(S'24*724-175+61'
p1819
S'17262'
p1820
tp1821
a(S'631+18-846*575'
p1822
S'-485801'
p1823
tp1824
a(S'85*256*477*476'
p1825
S'4940651520'
p1826
tp1827
a(S'949*286+642*39'
p1828
S'296452'
p1829
tp1830
a(S'73*248+311-870'
p1831
S'17545'
p1832
tp1833
a(S'678+152*579-888'
p1834
S'87798'
p1835
tp1836
a(S'83*794*955+791'
p1837
S'62937201'
p1838
tp1839
a(S'601*822*824*604'
p1840
S'245872773312'
p1841
tp1842
a(S'546+313-770+294'
p1843
S'383'
p1844
tp1845
a(S'258+78+615-73'
p1846
S'878'
p1847
tp1848
a(S'818*284+517*11'
p1849
S'237999'
p1850
tp1851
a(S'103*89*604*660'
p1852
S'3654332880'
p1853
tp1854
a(S'306-8-241+223'
p1855
S'280'
p1856
tp1857
a(S'483+128+822+784'
p1858
S'2217'
p1859
tp1860
a(S'143+142*10*282'
p1861
S'400583'
p1862
tp1863
a(S'415+642*258-822'
p1864
S'165229'
p1865
tp1866
a(S'340*861-976*650'
p1867
S'-341660'
p1868
tp1869
a(S'510-889-122*423'
p1870
S'-51985'
p1871
tp1872
a(S'29*775-722+42'
p1873
S'21795'
p1874
tp1875
a(S'950+66-756*797'
p1876
S'-601516'
p1877
tp1878
a(S'51*198*968+153'
p1879
S'9775017'
p1880
tp1881
a(S'768+80*989-498'
p1882
S'79390'
p1883
tp1884
a(S'266*582+746+434'
p1885
S'155992'
p1886
tp1887
a(S'348*232-161+116'
p1888
S'80691'
p1889
tp1890
a(S'415+185*210+531'
p1891
S'39796'
p1892
tp1893
a(S'68+289-162+150'
p1894
S'345'
p1895
tp1896
a(S'972+725*11-970'
p1897
S'7977'
p1898
tp1899
a(S'603-141-960*596'
p1900
S'-571698'
p1901
tp1902
a(S'336-433-812+884'
p1903
S'-25'
p1904
tp1905
a(S'719*812+509*174'
p1906
S'672394'
p1907
tp1908
a(S'553+737-547*224'
p1909
S'-121238'
p1910
tp1911
a(S'20-434-765+636'
p1912
S'-543'
p1913
tp1914
a(S'363-573-55-520'
p1915
S'-785'
p1916
tp1917
a(S'160*44*394*790'
p1918
S'2191270400'
p1919
tp1920
a(S'419+880+247-176'
p1921
S'1370'
p1922
tp1923
a(S'918+36-628*47'
p1924
S'-28562'
p1925
tp1926
a(S'984+33-984*757'
p1927
S'-743871'
p1928
tp1929
a(S'611+782-138-473'
p1930
S'782'
p1931
tp1932
a(S'191-783*429+889'
p1933
S'-334827'
p1934
tp1935
a(S'605*548-936+838'
p1936
S'331442'
p1937
tp1938
a(S'819-618*240*224'
p1939
S'-33222861'
p1940
tp1941
a(S'848-282*325-969'
p1942
S'-91771'
p1943
tp1944
a(S'194-818-754+419'
p1945
S'-959'
p1946
tp1947
a(S'669-513-55+230'
p1948
S'331'
p1949
tp1950
a(S'552+739-819-428'
p1951
S'44'
p1952
tp1953
a(S'67*41+607-173'
p1954
S'3181'
p1955
tp1956
a(S'765+688+410+409'
p1957
S'2272'
p1958
tp1959
a(S'535-4*560*266'
p1960
S'-595305'
p1961
tp1962
a(S'353-298+656+965'
p1963
S'1676'
p1964
tp1965
a(S'448+817*290-631'
p1966
S'236747'
p1967
tp1968
a(S'184+892-691-45'
p1969
S'340'
p1970
tp1971
a(S'421+286+715*4'
p1972
S'3567'
p1973
tp1974
a(S'150*28*702-250'
p1975
S'2948150'
p1976
tp1977
a(S'434-382*694*265'
p1978
S'-70253186'
p1979
tp1980
a(S'119+376-168*831'
p1981
S'-139113'
p1982
tp1983
a(S'642*388+496+737'
p1984
S'250329'
p1985
tp1986
a(S'261-175*73*990'
p1987
S'-12646989'
p1988
tp1989
a(S'776*588*1*213'
p1990
S'97189344'
p1991
tp1992
a(S'753-602-249*780'
p1993
S'-194069'
p1994
tp1995
a(S'365-771+53*714'
p1996
S'37436'
p1997
tp1998
a(S'368-629-529+384'
p1999
S'-406'
p2000
tp2001
a(S'119*65*260*459'
p2002
S'923094900'
p2003
tp2004
a(S'254*404+703+526'
p2005
S'103845'
p2006
tp2007
a(S'354-531*433-787'
p2008
S'-230356'
p2009
tp2010
a(S'89+341+155+599'
p2011
S'1184'
p2012
tp2013
a(S'552-742+145-368'
p2014
S'-413'
p2015
tp2016
a(S'227*580*468+120'
p2017
S'61617000'
p2018
tp2019
a(S'56-105+611*10'
p2020
S'6061'
p2021
tp2022
a(S'65*859-828+388'
p2023
S'55395'
p2024
tp2025
a(S'528-150-556-552'
p2026
S'-730'
p2027
tp2028
a(S'275+505+569*863'
p2029
S'491827'
p2030
tp2031
a(S'611*421-936+798'
p2032
S'257093'
p2033
tp2034
a(S'664+911+746*971'
p2035
S'725941'
p2036
tp2037
a(S'32+940*249+269'
p2038
S'234361'
p2039
tp2040
a(S'944+538+384+922'
p2041
S'2788'
p2042
tp2043
a(S'806-433*234-694'
p2044
S'-101210'
p2045
tp2046
a(S'596-230+656*554'
p2047
S'363790'
p2048
tp2049
a(S'882*413-246+642'
p2050
S'364662'
p2051
tp2052
a(S'496-750*758+676'
p2053
S'-567328'
p2054
tp2055
a(S'770+607-489+438'
p2056
S'1326'
p2057
tp2058
a(S'245-825-777-489'
p2059
S'-1846'
p2060
tp2061
a(S'156+888+645*532'
p2062
S'344184'
p2063
tp2064
a(S'806+843+639+795'
p2065
S'3083'
p2066
tp2067
a(S'449*920*641-298'
p2068
S'264783982'
p2069
tp2070
a(S'849+955-664*121'
p2071
S'-78540'
p2072
tp2073
a(S'641+492-71*697'
p2074
S'-48354'
p2075
tp2076
a(S'741*415-663*850'
p2077
S'-256035'
p2078
tp2079
a(S'730-659-288+812'
p2080
S'595'
p2081
tp2082
a(S'229*842*587*294'
p2083
S'33276144804'
p2084
tp2085
a(S'195-26+253-357'
p2086
S'65'
p2087
tp2088
a(S'510-347*822*886'
p2089
S'-252716814'
p2090
tp2091
a(S'58*812+203-731'
p2092
S'46568'
p2093
tp2094
a(S'23-84+690*722'
p2095
S'498119'
p2096
tp2097
a(S'883-462+4+15'
p2098
S'440'
p2099
tp2100
a(S'764+731+871*653'
p2101
S'570258'
p2102
tp2103
a(S'986-998+190*634'
p2104
S'120448'
p2105
tp2106
a(S'59-30+590+228'
p2107
S'847'
p2108
tp2109
a(S'246+775*214-292'
p2110
S'165804'
p2111
tp2112
a(S'812-453-784*831'
p2113
S'-651145'
p2114
tp2115
a(S'292-997-667+672'
p2116
S'-700'
p2117
tp2118
a(S'686*272-451+426'
p2119
S'186567'
p2120
tp2121
a(S'62*474-987+807'
p2122
S'29208'
p2123
tp2124
a(S'475-563*348+888'
p2125
S'-194561'
p2126
tp2127
a(S'374+497+650+451'
p2128
S'1972'
p2129
tp2130
a(S'340-203+725-595'
p2131
S'267'
p2132
tp2133
a(S'102-74-444+99'
p2134
S'-317'
p2135
tp2136
a(S'368+516+678+145'
p2137
S'1707'
p2138
tp2139
a(S'86+38+215+100'
p2140
S'439'
p2141
tp2142
a(S'466-877+343-667'
p2143
S'-735'
p2144
tp2145
a(S'658+3*498*164'
p2146
S'245674'
p2147
tp2148
a(S'397*467-42-56'
p2149
S'185301'
p2150
tp2151
a(S'538*180*15-398'
p2152
S'1452202'
p2153
tp2154
a(S'912-383+659+96'
p2155
S'1284'
p2156
tp2157
a(S'869-733-723-477'
p2158
S'-1064'
p2159
tp2160
a(S'346+329*157+356'
p2161
S'52355'
p2162
tp2163
a(S'650-17*570*586'
p2164
S'-5677690'
p2165
tp2166
a(S'979+45+366+433'
p2167
S'1823'
p2168
tp2169
a(S'822+798+747*776'
p2170
S'581292'
p2171
tp2172
a(S'190-433*524+466'
p2173
S'-226236'
p2174
tp2175
a(S'654*864+630+230'
p2176
S'565916'
p2177
tp2178
a(S'772*922+451+375'
p2179
S'712610'
p2180
tp2181
a(S'647-840+98-243'
p2182
S'-338'
p2183
tp2184
a(S'128-832-170*911'
p2185
S'-155574'
p2186
tp2187
a(S'250+531*182-231'
p2188
S'96661'
p2189
tp2190
a(S'439*622*697-163'
p2191
S'190321263'
p2192
tp2193
a(S'276+277*454-215'
p2194
S'125819'
p2195
tp2196
a(S'741+798-394+346'
p2197
S'1491'
p2198
tp2199
a(S'988-377-88-328'
p2200
S'195'
p2201
tp2202
a(S'287-641-565-590'
p2203
S'-1509'
p2204
tp2205
a(S'435+360-309-531'
p2206
S'-45'
p2207
tp2208
a(S'784*119+350-275'
p2209
S'93371'
p2210
tp2211
a(S'221+761-96+746'
p2212
S'1632'
p2213
tp2214
a(S'881-2-746*133'
p2215
S'-98339'
p2216
tp2217
a(S'485-481+348+785'
p2218
S'1137'
p2219
tp2220
a(S'757-84+962*515'
p2221
S'496103'
p2222
tp2223
a(S'588*154+511+405'
p2224
S'91468'
p2225
tp2226
a(S'368*16*301+59'
p2227
S'1772347'
p2228
tp2229
a(S'313*311-743+446'
p2230
S'97046'
p2231
tp2232
a(S'22-535-626*847'
p2233
S'-530735'
p2234
tp2235
a(S'582-584*170-976'
p2236
S'-99674'
p2237
tp2238
a(S'484*213+884-704'
p2239
S'103272'
p2240
tp2241
a(S'717+30*496-167'
p2242
S'15430'
p2243
tp2244
a(S'435+96+859*486'
p2245
S'418005'
p2246
tp2247
a(S'462+720*938-543'
p2248
S'675279'
p2249
tp2250
a(S'0-195+861-862'
p2251
S'-196'
p2252
tp2253
a(S'763-168-572+502'
p2254
S'525'
p2255
tp2256
a(S'711-417*248-192'
p2257
S'-102897'
p2258
tp2259
a(S'678-62-15+570'
p2260
S'1171'
p2261
tp2262
a(S'459*757*218-316'
p2263
S'75746618'
p2264
tp2265
a(S'288+161+733-111'
p2266
S'1071'
p2267
tp2268
a(S'955-529+786+435'
p2269
S'1647'
p2270
tp2271
a(S'889-466*96*647'
p2272
S'-28943303'
p2273
tp2274
a(S'426-811*658-33'
p2275
S'-533245'
p2276
tp2277
a(S'805*731+275*950'
p2278
S'849705'
p2279
tp2280
a(S'934-993+322-802'
p2281
S'-539'
p2282
tp2283
a(S'318+757*112*139'
p2284
S'11785294'
p2285
tp2286
a(S'959+262*797-20'
p2287
S'209753'
p2288
tp2289
a(S'884+217*521*434'
p2290
S'49067622'
p2291
tp2292
a(S'128-183+21-816'
p2293
S'-850'
p2294
tp2295
a(S'833*245+309+169'
p2296
S'204563'
p2297
tp2298
a(S'537*86-66+742'
p2299
S'46858'
p2300
tp2301
a(S'665-467*765+200'
p2302
S'-356390'
p2303
tp2304
a(S'714+167+2+574'
p2305
S'1457'
p2306
tp2307
a(S'413*689-722+379'
p2308
S'284214'
p2309
tp2310
a(S'603-162-912-31'
p2311
S'-502'
p2312
tp2313
a(S'911*851*801-782'
p2314
S'620983279'
p2315
tp2316
a(S'837-269-903*642'
p2317
S'-579158'
p2318
tp2319
a(S'215*288*83+328'
p2320
S'5139688'
p2321
tp2322
a(S'19+333-697+195'
p2323
S'-150'
p2324
tp2325
a(S'801+594*794+468'
p2326
S'472905'
p2327
tp2328
a(S'871+205+545+293'
p2329
S'1914'
p2330
tp2331
a(S'290*293*452*776'
p2332
S'29803397440'
p2333
tp2334
a(S'318+807*710-37'
p2335
S'573251'
p2336
tp2337
a(S'307*261-826+306'
p2338
S'79607'
p2339
tp2340
a(S'564+784-681*694'
p2341
S'-471266'
p2342
tp2343
a(S'678-574-949+187'
p2344
S'-658'
p2345
tp2346
a(S'606+271+731*216'
p2347
S'158773'
p2348
tp2349
a(S'861+609-83-807'
p2350
S'580'
p2351
tp2352
a(S'33*207-983+270'
p2353
S'6118'
p2354
tp2355
a(S'461-413+424+32'
p2356
S'504'
p2357
tp2358
a(S'667+16*179-545'
p2359
S'2986'
p2360
tp2361
a(S'172+761-720-470'
p2362
S'-257'
p2363
tp2364
a(S'943+494*762*27'
p2365
S'10164499'
p2366
tp2367
a(S'886*562*706+248'
p2368
S'351540240'
p2369
tp2370
a(S'948*449-581+316'
p2371
S'425387'
p2372
tp2373
a(S'920*502+271-957'
p2374
S'461154'
p2375
tp2376
a(S'622*724-587*313'
p2377
S'266597'
p2378
tp2379
a(S'767+705-25-503'
p2380
S'944'
p2381
tp2382
a(S'786*557-817+424'
p2383
S'437409'
p2384
tp2385
a(S'649*189*267*844'
p2386
S'27641411028'
p2387
tp2388
a(S'622*937*603*381'
p2389
S'133897436802'
p2390
tp2391
a(S'705*745*511-66'
p2392
S'268389909'
p2393
tp2394
a(S'346+221+813-314'
p2395
S'1066'
p2396
tp2397
a(S'469*871+643+131'
p2398
S'409273'
p2399
tp2400
a(S'386+976+186*152'
p2401
S'29634'
p2402
tp2403
a(S'289*925-40+784'
p2404
S'268069'
p2405
tp2406
a(S'60-121*53*13'
p2407
S'-83309'
p2408
tp2409
a(S'454+714+386-338'
p2410
S'1216'
p2411
tp2412
a(S'66-563+496*556'
p2413
S'275279'
p2414
tp2415
a(S'270*334-119-599'
p2416
S'89462'
p2417
tp2418
a(S'29*207+593-524'
p2419
S'6072'
p2420
tp2421
a(S'2-511+448+19'
p2422
S'-42'
p2423
tp2424
a(S'601-230-249+399'
p2425
S'521'
p2426
tp2427
a(S'835+646+453*586'
p2428
S'266939'
p2429
tp2430
a(S'14-489-498*687'
p2431
S'-342601'
p2432
tp2433
a(S'581-622+315*107'
p2434
S'33664'
p2435
tp2436
a(S'696+686*224-852'
p2437
S'153508'
p2438
tp2439
a(S'744*154*372*0'
p2440
S'0'
p2441
tp2442
a(S'219+205*119*621'
p2443
S'15149514'
p2444
tp2445
a(S'531+252*71+81'
p2446
S'18504'
p2447
tp2448
a(S'409+338*767+800'
p2449
S'260455'
p2450
tp2451
a(S'410*341*35*685'
p2452
S'3351944750'
p2453
tp2454
a(S'353*922+178+689'
p2455
S'326333'
p2456
tp2457
a(S'556-734*323-138'
p2458
S'-236664'
p2459
tp2460
a(S'602+789-396+201'
p2461
S'1196'
p2462
tp2463
a(S'63-94*770*534'
p2464
S'-38650857'
p2465
tp2466
a(S'281+273-261+74'
p2467
S'367'
p2468
tp2469
a(S'71-399*355-379'
p2470
S'-141953'
p2471
tp2472
a(S'635+671-55+469'
p2473
S'1720'
p2474
tp2475
a(S'78-994+721+517'
p2476
S'322'
p2477
tp2478
a(S'655-16+385+373'
p2479
S'1397'
p2480
tp2481
a(S'85*804+901+838'
p2482
S'70079'
p2483
tp2484
a(S'57*8*131-12'
p2485
S'59724'
p2486
tp2487
a(S'655-622+519*166'
p2488
S'86187'
p2489
tp2490
a(S'635-491-337+214'
p2491
S'21'
p2492
tp2493
a(S'498+701*898*233'
p2494
S'146673532'
p2495
tp2496
a(S'87+785*457+581'
p2497
S'359413'
p2498
tp2499
a(S'647+548*466+583'
p2500
S'256598'
p2501
tp2502
a(S'315*445-221-270'
p2503
S'139684'
p2504
tp2505
a(S'26*460+399*949'
p2506
S'390611'
p2507
tp2508
a(S'181*553-128+471'
p2509
S'100436'
p2510
tp2511
a(S'107+300*636*509'
p2512
S'97117307'
p2513
tp2514
a(S'171+270*502+162'
p2515
S'135873'
p2516
tp2517
a(S'339-328+362-231'
p2518
S'142'
p2519
tp2520
a(S'863*63-204*735'
p2521
S'-95571'
p2522
tp2523
a(S'282*184-318*964'
p2524
S'-254664'
p2525
tp2526
a(S'568*947+933*721'
p2527
S'1210589'
p2528
tp2529
a(S'327+309*80-740'
p2530
S'24307'
p2531
tp2532
a(S'668*525-896-222'
p2533
S'349582'
p2534
tp2535
a(S'617*16*643+477'
p2536
S'6348173'
p2537
tp2538
a(S'559+87+930+160'
p2539
S'1736'
p2540
tp2541
a(S'535*439+321+373'
p2542
S'235559'
p2543
tp2544
a(S'38-907+986*377'
p2545
S'370853'
p2546
tp2547
a(S'358*815*456*676'
p2548
S'89939853120'
p2549
tp2550
a(S'816+439*606-304'
p2551
S'266546'
p2552
tp2553
a(S'930*240*690*329'
p2554
S'50668632000'
p2555
tp2556
a(S'41*204+627-695'
p2557
S'8296'
p2558
tp2559
a(S'161-293+550+796'
p2560
S'1214'
p2561
tp2562
a(S'276-391*597+390'
p2563
S'-232761'
p2564
tp2565
a(S'446-818*98-576'
p2566
S'-80294'
p2567
tp2568
a(S'498*485-224-745'
p2569
S'240561'
p2570
tp2571
a(S'309*806*346+436'
p2572
S'86173120'
p2573
tp2574
a(S'307+623-381+742'
p2575
S'1291'
p2576
tp2577
a(S'185+744-793+267'
p2578
S'403'
p2579
tp2580
a(S'559-416*139*679'
p2581
S'-39261937'
p2582
tp2583
a(S'679-941+971-526'
p2584
S'183'
p2585
tp2586
a(S'860-777+994-256'
p2587
S'821'
p2588
tp2589
a(S'911+95+482*610'
p2590
S'295026'
p2591
tp2592
a(S'159+202*539*903'
p2593
S'98316993'
p2594
tp2595
a(S'627*881*163*557'
p2596
S'50151768117'
p2597
tp2598
a(S'244+26+220+732'
p2599
S'1222'
p2600
tp2601
a(S'924-71*739+626'
p2602
S'-50919'
p2603
tp2604
a(S'52*298*828+95'
p2605
S'12830783'
p2606
tp2607
a(S'340-887+407*511'
p2608
S'207430'
p2609
tp2610
a(S'184-289*537-458'
p2611
S'-155467'
p2612
tp2613
a(S'152*245+440-988'
p2614
S'36692'
p2615
tp2616
a(S'512+782+377*302'
p2617
S'115148'
p2618
tp2619
a(S'943+540-694+66'
p2620
S'855'
p2621
tp2622
a(S'411*35+349+693'
p2623
S'15427'
p2624
tp2625
a(S'853-487*103*609'
p2626
S'-30547196'
p2627
tp2628
a(S'381*583+428*990'
p2629
S'645843'
p2630
tp2631
a(S'965+23-390-931'
p2632
S'-333'
p2633
tp2634
a(S'281*84-490-706'
p2635
S'22408'
p2636
tp2637
a(S'431-529+883*963'
p2638
S'850231'
p2639
tp2640
a(S'80+36*442*943'
p2641
S'15005096'
p2642
tp2643
a(S'692-697-502+307'
p2644
S'-200'
p2645
tp2646
a(S'948-666-387-522'
p2647
S'-627'
p2648
tp2649
a(S'45*364+740*735'
p2650
S'560280'
p2651
tp2652
a(S'651*744+907*818'
p2653
S'1226270'
p2654
tp2655
a(S'255*471*212+62'
p2656
S'25462322'
p2657
tp2658
a(S'807*81+812-800'
p2659
S'65379'
p2660
tp2661
a(S'950-471-105+459'
p2662
S'833'
p2663
tp2664
a(S'513*536-379*281'
p2665
S'168469'
p2666
tp2667
a(S'85-789-782+400'
p2668
S'-1086'
p2669
tp2670
a(S'17+588-602-250'
p2671
S'-247'
p2672
tp2673
a(S'988-550+833*403'
p2674
S'336137'
p2675
tp2676
a(S'660*780-223-287'
p2677
S'514290'
p2678
tp2679
a(S'943*869-808*790'
p2680
S'181147'
p2681
tp2682
a(S'671-104*363*129'
p2683
S'-4869337'
p2684
tp2685
a(S'264-850+363-823'
p2686
S'-1046'
p2687
tp2688
a(S'870*362+3-782'
p2689
S'314161'
p2690
tp2691
a(S'460+871*294*386'
p2692
S'98845024'
p2693
tp2694
a(S'766+151*802*591'
p2695
S'71572048'
p2696
tp2697
a(S'412*361+745+741'
p2698
S'150218'
p2699
tp2700
a(S'11-64*148*958'
p2701
S'-9074165'
p2702
tp2703
a(S'774*544+699*204'
p2704
S'563652'
p2705
tp2706
a(S'777*922*319*82'
p2707
S'18739434252'
p2708
tp2709
a(S'487+562+792*901'
p2710
S'714641'
p2711
tp2712
a(S'872+679*736*98'
p2713
S'48975784'
p2714
tp2715
a(S'144-431+549*353'
p2716
S'193510'
p2717
tp2718
a(S'642*92*789+36'
p2719
S'46601532'
p2720
tp2721
a(S'822*206+102*237'
p2722
S'193506'
p2723
tp2724
a(S'716+257*212+827'
p2725
S'56027'
p2726
tp2727
a(S'193-886+841-833'
p2728
S'-685'
p2729
tp2730
a(S'489*251+112*112'
p2731
S'135283'
p2732
tp2733
a(S'448+673*391+439'
p2734
S'264030'
p2735
tp2736
a(S'666-972+273*611'
p2737
S'166497'
p2738
tp2739
a(S'503+161-743*370'
p2740
S'-274246'
p2741
tp2742
a(S'349-818*272+387'
p2743
S'-221760'
p2744
tp2745
a(S'482-759*130-65'
p2746
S'-98253'
p2747
tp2748
a(S'341-275-823-103'
p2749
S'-860'
p2750
tp2751
a(S'868+17-395+525'
p2752
S'1015'
p2753
tp2754
a(S'39+762+915+777'
p2755
S'2493'
p2756
tp2757
a(S'523-823*264-460'
p2758
S'-217209'
p2759
tp2760
a(S'918*204-912+700'
p2761
S'187060'
p2762
tp2763
a(S'556-592+967-724'
p2764
S'207'
p2765
tp2766
a(S'76-591-722*76'
p2767
S'-55387'
p2768
tp2769
a(S'253-986*528-701'
p2770
S'-521056'
p2771
tp2772
a(S'140-343*135+74'
p2773
S'-46091'
p2774
tp2775
a(S'593-465-208*235'
p2776
S'-48752'
p2777
tp2778
a(S'278+756+939-744'
p2779
S'1229'
p2780
tp2781
a(S'643-62+175-274'
p2782
S'482'
p2783
tp2784
a(S'313-27*45+244'
p2785
S'-658'
p2786
tp2787
a(S'191-353-548+888'
p2788
S'178'
p2789
tp2790
a(S'700+146+548+277'
p2791
S'1671'
p2792
tp2793
a(S'380-230*784*256'
p2794
S'-46161540'
p2795
tp2796
a(S'689-238-240*674'
p2797
S'-161309'
p2798
tp2799
a(S'637-189+897-224'
p2800
S'1121'
p2801
tp2802
a(S'405+356*370-362'
p2803
S'131763'
p2804
tp2805
a(S'76*791+848+789'
p2806
S'61753'
p2807
tp2808
a(S'83+291*917-603'
p2809
S'266327'
p2810
tp2811
a(S'227+140+573+261'
p2812
S'1201'
p2813
tp2814
a(S'136+225+817*712'
p2815
S'582065'
p2816
tp2817
a(S'350*167+79*669'
p2818
S'111301'
p2819
tp2820
a(S'346+862*742-537'
p2821
S'639413'
p2822
tp2823
a(S'610*798-997*105'
p2824
S'382095'
p2825
tp2826
a(S'316-162+436*105'
p2827
S'45934'
p2828
tp2829
a(S'182*924+20+983'
p2830
S'169171'
p2831
tp2832
a(S'487-136*80*360'
p2833
S'-3916313'
p2834
tp2835
a(S'499-424-719*302'
p2836
S'-217063'
p2837
tp2838
a(S'818+439*127*955'
p2839
S'53244933'
p2840
tp2841
a(S'708*427-609-700'
p2842
S'301007'
p2843
tp2844
a(S'526*681*174*420'
p2845
S'26177694480'
p2846
tp2847
a(S'776+202*168*208'
p2848
S'7059464'
p2849
tp2850
a(S'645+882+7*443'
p2851
S'4628'
p2852
tp2853
a(S'118*807*80-525'
p2854
S'7617555'
p2855
tp2856
a(S'657+359+548-949'
p2857
S'615'
p2858
tp2859
a(S'285-322-559-550'
p2860
S'-1146'
p2861
tp2862
a(S'618-58-107*443'
p2863
S'-46841'
p2864
tp2865
a(S'133+322*255-679'
p2866
S'81564'
p2867
tp2868
a(S'226+498-515+335'
p2869
S'544'
p2870
tp2871
a(S'908*854+517*664'
p2872
S'1118720'
p2873
tp2874
a(S'148-655*774-10'
p2875
S'-506832'
p2876
tp2877
a(S'126*979+697+476'
p2878
S'124527'
p2879
tp2880
a(S'923*630*542+469'
p2881
S'315168049'
p2882
tp2883
a(S'328+392+621+646'
p2884
S'1987'
p2885
tp2886
a(S'795-51*582*352'
p2887
S'-10447269'
p2888
tp2889
a(S'124-891-570+74'
p2890
S'-1263'
p2891
tp2892
a(S'10+235+948*113'
p2893
S'107369'
p2894
tp2895
a(S'257+979*660-767'
p2896
S'645630'
p2897
tp2898
a(S'243-527*917*8'
p2899
S'-3865829'
p2900
tp2901
a(S'687*822-63*921'
p2902
S'506691'
p2903
tp2904
a(S'848-974*270+93'
p2905
S'-262039'
p2906
tp2907
a(S'846-141+308+613'
p2908
S'1626'
p2909
tp2910
a(S'232*491*73+70'
p2911
S'8315646'
p2912
tp2913
a(S'410-758*173+505'
p2914
S'-130219'
p2915
tp2916
a(S'349*106+651-19'
p2917
S'37626'
p2918
tp2919
a(S'301*953-622+859'
p2920
S'287090'
p2921
tp2922
a(S'928-893*16*34'
p2923
S'-484864'
p2924
tp2925
a(S'988*692+172-442'
p2926
S'683426'
p2927
tp2928
a(S'340-574+428-124'
p2929
S'70'
p2930
tp2931
a(S'487+731+595+624'
p2932
S'2437'
p2933
tp2934
a(S'366*257+387-900'
p2935
S'93549'
p2936
tp2937
a(S'206*964-382+250'
p2938
S'198452'
p2939
tp2940
a(S'71*154+584+288'
p2941
S'11806'
p2942
tp2943
a(S'304*502*893+319'
p2944
S'136279263'
p2945
tp2946
a(S'898*407+456+272'
p2947
S'366214'
p2948
tp2949
a(S'487*350*604-914'
p2950
S'102950886'
p2951
tp2952
a(S'337+9*462-866'
p2953
S'3629'
p2954
tp2955
a(S'98-791+451-23'
p2956
S'-265'
p2957
tp2958
a(S'282+939+792-184'
p2959
S'1829'
p2960
tp2961
a(S'803*184-507*636'
p2962
S'-174700'
p2963
tp2964
a(S'183-451-475-34'
p2965
S'-777'
p2966
tp2967
a(S'294+523-634*916'
p2968
S'-579927'
p2969
tp2970
a(S'635+358+77+286'
p2971
S'1356'
p2972
tp2973
a(S'439-791*783-779'
p2974
S'-619693'
p2975
tp2976
a(S'525-586*519-957'
p2977
S'-304566'
p2978
tp2979
a(S'372*329+186-573'
p2980
S'122001'
p2981
tp2982
a(S'47*394-132+849'
p2983
S'19235'
p2984
tp2985
a(S'812+912+715-742'
p2986
S'1697'
p2987
tp2988
a(S'277*525*729+913'
p2989
S'106015738'
p2990
tp2991
a(S'802-69+416-400'
p2992
S'749'
p2993
tp2994
a(S'119-516*662*793'
p2995
S'-270882337'
p2996
tp2997
a(S'699+822+130*144'
p2998
S'20241'
p2999
tp3000
a(S'411-924-245+511'
p3001
S'-247'
p3002
tp3003
a(S'339-534-718+39'
p3004
S'-874'
p3005
tp3006
a(S'843*267-458-489'
p3007
S'224134'
p3008
tp3009
a(S'652-277*11-387'
p3010
S'-2782'
p3011
tp3012
a(S'657+727-890*212'
p3013
S'-187296'
p3014
tp3015
a(S'781-697*787*661'
p3016
S'-362583498'
p3017
tp3018
a(S'538+114-99-14'
p3019
S'539'
p3020
tp3021
a(S'23*850-490*518'
p3022
S'-234270'
p3023
tp3024
a(S'912*341+852*813'
p3025
S'1003668'
p3026
tp3027
a(S'930*882*76+186'
p3028
S'62339946'
p3029
tp3030
a(S'690+482*573*846'
p3031
S'233654046'
p3032
tp3033
a(S'898*595*984+345'
p3034
S'525761385'
p3035
tp3036
a(S'166-907*43+733'
p3037
S'-38102'
p3038
tp3039
a(S'183+459*72-900'
p3040
S'32331'
p3041
tp3042
a(S'523*502-542-41'
p3043
S'261963'
p3044
tp3045
a(S'121+880-830-753'
p3046
S'-582'
p3047
tp3048
a(S'363+216+442+277'
p3049
S'1298'
p3050
tp3051
a(S'270-137+453*621'
p3052
S'281446'
p3053
tp3054
a(S'454-775-719+897'
p3055
S'-143'
p3056
tp3057
a(S'631-915*816*81'
p3058
S'-60477209'
p3059
tp3060
a(S'79+122*204*724'
p3061
S'18018991'
p3062
tp3063
a(S'291*115*2+881'
p3064
S'67811'
p3065
tp3066
a(S'52-954-904-234'
p3067
S'-2040'
p3068
tp3069
a(S'255+392+315+157'
p3070
S'1119'
p3071
tp3072
a(S'789+304*788-920'
p3073
S'239421'
p3074
tp3075
a(S'956-782*907+616'
p3076
S'-707702'
p3077
tp3078
a(S'417+113*912-693'
p3079
S'102780'
p3080
tp3081
a(S'245+552-373-103'
p3082
S'321'
p3083
tp3084
a(S'57+927*149-709'
p3085
S'137471'
p3086
tp3087
a(S'249*245*624-46'
p3088
S'38067074'
p3089
tp3090
a(S'403+727*66+920'
p3091
S'49305'
p3092
tp3093
a(S'194+669*719+120'
p3094
S'481325'
p3095
tp3096
a(S'193+515-299-701'
p3097
S'-292'
p3098
tp3099
a(S'604-960+980*770'
p3100
S'754244'
p3101
tp3102
a(S'749+858-148*641'
p3103
S'-93261'
p3104
tp3105
a(S'751-394-256*925'
p3106
S'-236443'
p3107
tp3108
a(S'276+680-467+123'
p3109
S'612'
p3110
tp3111
a(S'360-761+174*864'
p3112
S'149935'
p3113
tp3114
a(S'349+730+775*804'
p3115
S'624179'
p3116
tp3117
a(S'715+826*495*843'
p3118
S'344678125'
p3119
tp3120
a(S'837*922+968*100'
p3121
S'868514'
p3122
tp3123
a(S'975*670*258*848'
p3124
S'142920648000'
p3125
tp3126
a(S'542-649*27-736'
p3127
S'-17717'
p3128
tp3129
a(S'277+212*287+394'
p3130
S'61515'
p3131
tp3132
a(S'243+291-833+119'
p3133
S'-180'
p3134
tp3135
a(S'218+154-703-119'
p3136
S'-450'
p3137
tp3138
a(S'333*577-409+154'
p3139
S'191886'
p3140
tp3141
a(S'636+802+60+257'
p3142
S'1755'
p3143
tp3144
a(S'616*625+285*941'
p3145
S'653185'
p3146
tp3147
a(S'566-115-549-624'
p3148
S'-722'
p3149
tp3150
a(S'415+285-675*73'
p3151
S'-48575'
p3152
tp3153
a(S'420*972-870+519'
p3154
S'407889'
p3155
tp3156
a(S'617-206-550+788'
p3157
S'649'
p3158
tp3159
a(S'938*993-432-190'
p3160
S'930812'
p3161
tp3162
a(S'601+772-274-921'
p3163
S'178'
p3164
tp3165
a(S'59+192*313*447'
p3166
S'26862971'
p3167
tp3168
a(S'808+612*119*424'
p3169
S'30879880'
p3170
tp3171
a(S'378+13*731-940'
p3172
S'8941'
p3173
tp3174
a(S'905+822-805-676'
p3175
S'246'
p3176
tp3177
a(S'983+672*903+110'
p3178
S'607909'
p3179
tp3180
a(S'152-165-266+33'
p3181
S'-246'
p3182
tp3183
a(S'713*721+297*102'
p3184
S'544367'
p3185
tp3186
a(S'612+348+101+704'
p3187
S'1765'
p3188
tp3189
a(S'715+915+375-257'
p3190
S'1748'
p3191
tp3192
a(S'640*105*949+265'
p3193
S'63773065'
p3194
tp3195
a(S'673+247-215-784'
p3196
S'-79'
p3197
tp3198
a(S'189-304-818*383'
p3199
S'-313409'
p3200
tp3201
a(S'892*377*852+997'
p3202
S'286514965'
p3203
tp3204
a(S'996*237*100*944'
p3205
S'22283308800'
p3206
tp3207
a(S'311-686+607*777'
p3208
S'471264'
p3209
tp3210
a(S'722-283+263+816'
p3211
S'1518'
p3212
tp3213
a(S'129*200*521+605'
p3214
S'13442405'
p3215
tp3216
a(S'805+19-649*305'
p3217
S'-197121'
p3218
tp3219
a(S'419-274*216-19'
p3220
S'-58784'
p3221
tp3222
a(S'560+80*327+305'
p3223
S'27025'
p3224
tp3225
a(S'398+929-171*278'
p3226
S'-46211'
p3227
tp3228
a(S'767*502+492+945'
p3229
S'386471'
p3230
tp3231
a(S'29-567*410-745'
p3232
S'-233186'
p3233
tp3234
a(S'816+881+171-484'
p3235
S'1384'
p3236
tp3237
a(S'243*810+598-90'
p3238
S'197338'
p3239
tp3240
a(S'972-350-612+28'
p3241
S'38'
p3242
tp3243
a(S'696-742-999*706'
p3244
S'-705340'
p3245
tp3246
a(S'299*279*969-84'
p3247
S'80834865'
p3248
tp3249
a(S'240*363*599-947'
p3250
S'52183933'
p3251
tp3252
a(S'742+772-272+998'
p3253
S'2240'
p3254
tp3255
a(S'616+882+42-422'
p3256
S'1118'
p3257
tp3258
a(S'251-49-451-364'
p3259
S'-613'
p3260
tp3261
a(S'183+795+738*338'
p3262
S'250422'
p3263
tp3264
a(S'860*954*784+487'
p3265
S'643225447'
p3266
tp3267
a(S'207+134*204+929'
p3268
S'28472'
p3269
tp3270
a(S'99-935*866+566'
p3271
S'-809045'
p3272
tp3273
a(S'0+871+751+832'
p3274
S'2454'
p3275
tp3276
a(S'544*60-637+385'
p3277
S'32388'
p3278
tp3279
a(S'763+617+236+273'
p3280
S'1889'
p3281
tp3282
a(S'867-352+41*661'
p3283
S'27616'
p3284
tp3285
a(S'163+721-629*147'
p3286
S'-91579'
p3287
tp3288
a(S'964*903-957-827'
p3289
S'868708'
p3290
tp3291
a(S'342*552-208+237'
p3292
S'188813'
p3293
tp3294
a(S'396*597-990+552'
p3295
S'235974'
p3296
tp3297
a(S'14-126-496*803'
p3298
S'-398400'
p3299
tp3300
a(S'239+210*219+84'
p3301
S'46313'
p3302
tp3303
a(S'744+792+436*227'
p3304
S'100508'
p3305
tp3306
a(S'897*435*837*948'
p3307
S'309610367820'
p3308
tp3309
a(S'403+739-982+390'
p3310
S'550'
p3311
tp3312
a(S'518*34-440+801'
p3313
S'17973'
p3314
tp3315
a(S'447*940-363-973'
p3316
S'418844'
p3317
tp3318
a(S'897+925-60*793'
p3319
S'-45758'
p3320
tp3321
a(S'524+117+591-213'
p3322
S'1019'
p3323
tp3324
a(S'576+77+796-232'
p3325
S'1217'
p3326
tp3327
a(S'46+921-567+754'
p3328
S'1154'
p3329
tp3330
a(S'707-895+857-610'
p3331
S'59'
p3332
tp3333
a(S'827-378+932-73'
p3334
S'1308'
p3335
tp3336
a(S'691-528+117-156'
p3337
S'124'
p3338
tp3339
a(S'822*348+636-506'
p3340
S'286186'
p3341
tp3342
a(S'980+254-410+60'
p3343
S'884'
p3344
tp3345
a(S'299-102-258+20'
p3346
S'-41'
p3347
tp3348
a(S'551+984*878*663'
p3349
S'572800727'
p3350
tp3351
a(S'713*400*962+834'
p3352
S'274363234'
p3353
tp3354
a(S'783-352-793-625'
p3355
S'-987'
p3356
tp3357
a(S'212-320+17+145'
p3358
S'54'
p3359
tp3360
a(S'120-426-1+591'
p3361
S'284'
p3362
tp3363
a(S'591-112+922*473'
p3364
S'436585'
p3365
tp3366
a(S'337-302+917-420'
p3367
S'532'
p3368
tp3369
a(S'589*615+550-215'
p3370
S'362570'
p3371
tp3372
a(S'179-508-835*560'
p3373
S'-467929'
p3374
tp3375
a(S'467-765*263-398'
p3376
S'-201126'
p3377
tp3378
a(S'389-99*878+857'
p3379
S'-85676'
p3380
tp3381
a(S'60*272*748+35'
p3382
S'12207395'
p3383
tp3384
a(S'978+90+197-136'
p3385
S'1129'
p3386
tp3387
a(S'273+484*161+73'
p3388
S'78270'
p3389
tp3390
a(S'291-380+595*610'
p3391
S'362861'
p3392
tp3393
a(S'7+891+514+14'
p3394
S'1426'
p3395
tp3396
a(S'599-231+973+778'
p3397
S'2119'
p3398
tp3399
a(S'315*616*737*494'
p3400
S'70645695120'
p3401
tp3402
a(S'897+409+866+143'
p3403
S'2315'
p3404
tp3405
a(S'30+13+62-739'
p3406
S'-634'
p3407
tp3408
a(S'558+487+663+612'
p3409
S'2320'
p3410
tp3411
a(S'133+304*367*264'
p3412
S'29454085'
p3413
tp3414
a(S'666*968*579-569'
p3415
S'373273783'
p3416
tp3417
a(S'634+833+162-400'
p3418
S'1229'
p3419
tp3420
a(S'696+438+160+324'
p3421
S'1618'
p3422
tp3423
a(S'28+281-281-361'
p3424
S'-333'
p3425
tp3426
a(S'587-946-458*654'
p3427
S'-299891'
p3428
tp3429
a(S'426-801*545-268'
p3430
S'-436387'
p3431
tp3432
a(S'37+335*555+47'
p3433
S'186009'
p3434
tp3435
a(S'881+957*608-146'
p3436
S'582591'
p3437
tp3438
a(S'268-933-199-701'
p3439
S'-1565'
p3440
tp3441
a(S'456-351*401+187'
p3442
S'-140108'
p3443
tp3444
a(S'899+105+264-909'
p3445
S'359'
p3446
tp3447
a(S'328-570+434-74'
p3448
S'118'
p3449
tp3450
a(S'823+344+165*902'
p3451
S'149997'
p3452
tp3453
a(S'817-991*638+821'
p3454
S'-630620'
p3455
tp3456
a(S'830+177+852*586'
p3457
S'500279'
p3458
tp3459
a(S'908+322+373-260'
p3460
S'1343'
p3461
tp3462
a(S'169+494*409*980'
p3463
S'198005249'
p3464
tp3465
a(S'735-181-211-164'
p3466
S'179'
p3467
tp3468
a(S'262+69*220*301'
p3469
S'4569442'
p3470
tp3471
a(S'127*950-842-779'
p3472
S'119029'
p3473
tp3474
a(S'216*708+292+983'
p3475
S'154203'
p3476
tp3477
a(S'561*941+2-141'
p3478
S'527762'
p3479
tp3480
a(S'508+4*438*651'
p3481
S'1141060'
p3482
tp3483
a(S'348-319*37+252'
p3484
S'-11203'
p3485
tp3486
a(S'380*472-37+670'
p3487
S'179993'
p3488
tp3489
a(S'776*611*755*566'
p3490
S'202612536880'
p3491
tp3492
a(S'297*594+141*766'
p3493
S'284424'
p3494
tp3495
a(S'471*867*330-436'
p3496
S'134757374'
p3497
tp3498
a(S'443-146+530*631'
p3499
S'334727'
p3500
tp3501
a(S'871*275*251*342'
p3502
S'20561305050'
p3503
tp3504
a(S'454-688+745*88'
p3505
S'65326'
p3506
tp3507
a(S'439-468*837+666'
p3508
S'-390611'
p3509
tp3510
a(S'16*201+939-697'
p3511
S'3458'
p3512
tp3513
a(S'184*28*940+481'
p3514
S'4843361'
p3515
tp3516
a(S'67+80*959+214'
p3517
S'77001'
p3518
tp3519
a(S'27*6+26+322'
p3520
S'510'
p3521
tp3522
a(S'64-995+506+430'
p3523
S'5'
p3524
tp3525
a(S'100+274*680*964'
p3526
S'179612580'
p3527
tp3528
a(S'652-346-643-105'
p3529
S'-442'
p3530
tp3531
a(S'206+251*802-578'
p3532
S'200930'
p3533
tp3534
a(S'176-956+376*980'
p3535
S'367700'
p3536
tp3537
a(S'760*55-488-597'
p3538
S'40715'
p3539
tp3540
a(S'825*253*731-331'
p3541
S'152577644'
p3542
tp3543
a(S'415*87*450-995'
p3544
S'16246255'
p3545
tp3546
a(S'176+292+661-516'
p3547
S'613'
p3548
tp3549
a(S'428*275*966-475'
p3550
S'113697725'
p3551
tp3552
a(S'205-495-882*596'
p3553
S'-525962'
p3554
tp3555
a(S'68*215-351*811'
p3556
S'-270041'
p3557
tp3558
a(S'216+250+950*175'
p3559
S'166716'
p3560
tp3561
a(S'160-213-732+502'
p3562
S'-283'
p3563
tp3564
a(S'687-567*360-534'
p3565
S'-203967'
p3566
tp3567
a(S'331*426*694+982'
p3568
S'97859146'
p3569
tp3570
a(S'560+561-889+219'
p3571
S'451'
p3572
tp3573
a(S'438-957-14*982'
p3574
S'-14267'
p3575
tp3576
a(S'445+341*473*622'
p3577
S'100324691'
p3578
tp3579
a(S'214-870-833-457'
p3580
S'-1946'
p3581
tp3582
a(S'988+225*939+754'
p3583
S'213017'
p3584
tp3585
a(S'93*643+975+889'
p3586
S'61663'
p3587
tp3588
a(S'131-504+421+604'
p3589
S'652'
p3590
tp3591
a(S'956*437+198-748'
p3592
S'417222'
p3593
tp3594
a(S'290+163-785-370'
p3595
S'-702'
p3596
tp3597
a(S'696+756+346-694'
p3598
S'1104'
p3599
tp3600
a(S'909-17*96*861'
p3601
S'-1404243'
p3602
tp3603
a(S'427+317-925-925'
p3604
S'-1106'
p3605
tp3606
a(S'513-559+732*76'
p3607
S'55586'
p3608
tp3609
a(S'514-223+654+807'
p3610
S'1752'
p3611
tp3612
a(S'52+325*993*266'
p3613
S'85844902'
p3614
tp3615
a(S'874-807-324+106'
p3616
S'-151'
p3617
tp3618
a(S'965*811*985*215'
p3619
S'165738291625'
p3620
tp3621
a(S'436*795*976+40'
p3622
S'338301160'
p3623
tp3624
a(S'586+389*44*1'
p3625
S'17702'
p3626
tp3627
a(S'239+365-860*863'
p3628
S'-741576'
p3629
tp3630
a(S'421-167*583*648'
p3631
S'-63089507'
p3632
tp3633
a(S'789*744*528+639'
p3634
S'309945087'
p3635
tp3636
a(S'501*506-498*785'
p3637
S'-137424'
p3638
tp3639
a(S'579+145*2*631'
p3640
S'183569'
p3641
tp3642
a(S'358*228+882-82'
p3643
S'82424'
p3644
tp3645
a(S'227*901+41*149'
p3646
S'210636'
p3647
tp3648
a(S'733-779-94*296'
p3649
S'-27870'
p3650
tp3651
a(S'851+891*396-805'
p3652
S'352882'
p3653
tp3654
a(S'542-707*85+276'
p3655
S'-59277'
p3656
tp3657
a(S'589+126*520*671'
p3658
S'43964509'
p3659
tp3660
a(S'771+949*900+260'
p3661
S'855131'
p3662
tp3663
a(S'222*698*521-941'
p3664
S'80731135'
p3665
tp3666
a(S'490*848-527-137'
p3667
S'414856'
p3668
tp3669
a(S'821*276+861+847'
p3670
S'228304'
p3671
tp3672
a(S'638+697-611+548'
p3673
S'1272'
p3674
tp3675
a(S'925-388-685-74'
p3676
S'-222'
p3677
tp3678
a(S'475+305-269+915'
p3679
S'1426'
p3680
tp3681
a(S'312*901-770*712'
p3682
S'-267128'
p3683
tp3684
a(S'469*362+201+699'
p3685
S'170678'
p3686
tp3687
a(S'468*822+928*581'
p3688
S'923864'
p3689
tp3690
a(S'373*190*811-305'
p3691
S'57475265'
p3692
tp3693
a(S'658-743*386+287'
p3694
S'-285853'
p3695
tp3696
a(S'779-625-339-230'
p3697
S'-415'
p3698
tp3699
a(S'690+99*508+106'
p3700
S'51088'
p3701
tp3702
a(S'434+482+158+476'
p3703
S'1550'
p3704
tp3705
a(S'286+59+494-517'
p3706
S'322'
p3707
tp3708
a(S'909+487*402-271'
p3709
S'196412'
p3710
tp3711
a(S'862+354+499*910'
p3712
S'455306'
p3713
tp3714
a(S'32+134+947+248'
p3715
S'1361'
p3716
tp3717
a(S'697*180+53*279'
p3718
S'140247'
p3719
tp3720
a(S'557-810-572-794'
p3721
S'-1619'
p3722
tp3723
a(S'322*556*588*302'
p3724
S'31791786432'
p3725
tp3726
a(S'92*421+806+625'
p3727
S'40163'
p3728
tp3729
a(S'986+356*195-461'
p3730
S'69945'
p3731
tp3732
a(S'817*944*869-387'
p3733
S'670214125'
p3734
tp3735
a(S'40+567-678*504'
p3736
S'-341105'
p3737
tp3738
a(S'867+801+367-263'
p3739
S'1772'
p3740
tp3741
a(S'323+501*821*106'
p3742
S'43600349'
p3743
tp3744
a(S'822-503-588-440'
p3745
S'-709'
p3746
tp3747
a(S'109-368-392+501'
p3748
S'-150'
p3749
tp3750
a(S'413+732+236+525'
p3751
S'1906'
p3752
tp3753
a(S'560+69*185+169'
p3754
S'13494'
p3755
tp3756
a(S'569+924*103+36'
p3757
S'95777'
p3758
tp3759
a(S'512-335+820-615'
p3760
S'382'
p3761
tp3762
a(S'909-49+194*160'
p3763
S'31900'
p3764
tp3765
a(S'651-713+542*993'
p3766
S'538144'
p3767
tp3768
a(S'248-30+721+769'
p3769
S'1708'
p3770
tp3771
a(S'197*597+775*703'
p3772
S'662434'
p3773
tp3774
a(S'426-764+910-506'
p3775
S'66'
p3776
tp3777
a(S'951-140+864-103'
p3778
S'1572'
p3779
tp3780
a(S'945-397-108+583'
p3781
S'1023'
p3782
tp3783
a(S'349+88*215-87'
p3784
S'19182'
p3785
tp3786
a(S'57*102+777*776'
p3787
S'608766'
p3788
tp3789
a(S'19+83+756*748'
p3790
S'565590'
p3791
tp3792
a(S'454+802-787+231'
p3793
S'700'
p3794
tp3795
a(S'894*205*794-461'
p3796
S'145515919'
p3797
tp3798
a(S'319-670+109*645'
p3799
S'69954'
p3800
tp3801
a(S'304-119+123+28'
p3802
S'336'
p3803
tp3804
a(S'399-474*614+266'
p3805
S'-290371'
p3806
tp3807
a(S'181-432-837*567'
p3808
S'-474830'
p3809
tp3810
a(S'900-308-808*390'
p3811
S'-314528'
p3812
tp3813
a(S'370+224+174-42'
p3814
S'726'
p3815
tp3816
a(S'287+901*188+933'
p3817
S'170608'
p3818
tp3819
a(S'245+392*233+837'
p3820
S'92418'
p3821
tp3822
a(S'548*738+740-114'
p3823
S'405050'
p3824
tp3825
a(S'198-272-119+517'
p3826
S'324'
p3827
tp3828
a(S'236-554+696+926'
p3829
S'1304'
p3830
tp3831
a(S'323-866-653-422'
p3832
S'-1618'
p3833
tp3834
a(S'259*496*863+816'
p3835
S'110865248'
p3836
tp3837
a(S'485*798-695*515'
p3838
S'29105'
p3839
tp3840
a(S'424*570+470*673'
p3841
S'557990'
p3842
tp3843
a(S'229+430-686*473'
p3844
S'-323819'
p3845
tp3846
a(S'450-949+889-261'
p3847
S'129'
p3848
tp3849
a(S'142*190-494-982'
p3850
S'25504'
p3851
tp3852
a(S'498*641*234-920'
p3853
S'74696092'
p3854
tp3855
a(S'288+29*467+532'
p3856
S'14363'
p3857
tp3858
a(S'632*197-870*54'
p3859
S'77524'
p3860
tp3861
a(S'847*792*850-355'
p3862
S'570200045'
p3863
tp3864
a(S'234-398-253*533'
p3865
S'-135013'
p3866
tp3867
a(S'538+674+630-94'
p3868
S'1748'
p3869
tp3870
a(S'608*215+193-234'
p3871
S'130679'
p3872
tp3873
a(S'707-343*395-651'
p3874
S'-135429'
p3875
tp3876
a(S'233-915+817-273'
p3877
S'-138'
p3878
tp3879
a(S'260+330-575*323'
p3880
S'-185135'
p3881
tp3882
a(S'684-797-14+766'
p3883
S'639'
p3884
tp3885
a(S'724*646+590*754'
p3886
S'912564'
p3887
tp3888
a(S'388+930*363+826'
p3889
S'338804'
p3890
tp3891
a(S'284*667-929*477'
p3892
S'-253705'
p3893
tp3894
a(S'207+941-680+781'
p3895
S'1249'
p3896
tp3897
a(S'440-185+828*466'
p3898
S'386103'
p3899
tp3900
a(S'997*70-474-531'
p3901
S'68785'
p3902
tp3903
a(S'826+314*903*207'
p3904
S'58694020'
p3905
tp3906
a(S'398+928+666*383'
p3907
S'256404'
p3908
tp3909
a(S'720+596+950*327'
p3910
S'311966'
p3911
tp3912
a(S'868-537+963*441'
p3913
S'425014'
p3914
tp3915
a(S'117+39*498*832'
p3916
S'16159221'
p3917
tp3918
a(S'702+317*829*886'
p3919
S'232835300'
p3920
tp3921
a(S'426-704-364-856'
p3922
S'-1498'
p3923
tp3924
a(S'645*7-199*558'
p3925
S'-106527'
p3926
tp3927
a(S'616-604-624+56'
p3928
S'-556'
p3929
tp3930
a(S'163+123*309+584'
p3931
S'38754'
p3932
tp3933
a(S'46-663+739-168'
p3934
S'-46'
p3935
tp3936
a(S'543-248+198*837'
p3937
S'166021'
p3938
tp3939
a(S'822-829+159-199'
p3940
S'-47'
p3941
tp3942
a(S'431+725-134-249'
p3943
S'773'
p3944
tp3945
a(S'158-136+501*352'
p3946
S'176374'
p3947
tp3948
a(S'603+198-914-879'
p3949
S'-992'
p3950
tp3951
a(S'46-941-890-614'
p3952
S'-2399'
p3953
tp3954
a(S'827+657-584-797'
p3955
S'103'
p3956
tp3957
a(S'920*551+898*240'
p3958
S'722440'
p3959
tp3960
a(S'718*375-948*868'
p3961
S'-553614'
p3962
tp3963
a(S'739+988+551+52'
p3964
S'2330'
p3965
tp3966
a(S'458+187-133+780'
p3967
S'1292'
p3968
tp3969
a(S'891*522+123+110'
p3970
S'465335'
p3971
tp3972
a(S'442*733*738+619'
p3973
S'239102287'
p3974
tp3975
a(S'960+558-702+72'
p3976
S'888'
p3977
tp3978
a(S'971+9*179-872'
p3979
S'1710'
p3980
tp3981
a(S'241+285+751*953'
p3982
S'716229'
p3983
tp3984
a(S'598+831*784+755'
p3985
S'652857'
p3986
tp3987
a(S'788-544+163*150'
p3988
S'24694'
p3989
tp3990
a(S'299+737-888+563'
p3991
S'711'
p3992
tp3993
a(S'428-126-130*592'
p3994
S'-76658'
p3995
tp3996
a(S'316-244+761-0'
p3997
S'833'
p3998
tp3999
a(S'581*551-344+277'
p4000
S'320064'
p4001
tp4002
a(S'685+12*634*45'
p4003
S'343045'
p4004
tp4005
a(S'709-915+938-907'
p4006
S'-175'
p4007
tp4008
a(S'82-646+784+453'
p4009
S'673'
p4010
tp4011
a(S'418*173*453*790'
p4012
S'25879011180'
p4013
tp4014
a(S'735*549+187*299'
p4015
S'459428'
p4016
tp4017
a(S'119*853*144*946'
p4018
S'13827689568'
p4019
tp4020
a(S'232*405+703*557'
p4021
S'485531'
p4022
tp4023
a(S'374-36+22*853'
p4024
S'19104'
p4025
tp4026
a(S'902-36*889-891'
p4027
S'-31993'
p4028
tp4029
a(S'206+308-667-912'
p4030
S'-1065'
p4031
tp4032
a(S'327-163+176*779'
p4033
S'137268'
p4034
tp4035
a(S'293*955*553+344'
p4036
S'154738039'
p4037
tp4038
a(S'576*247-530-294'
p4039
S'141448'
p4040
tp4041
a(S'700*874-72-939'
p4042
S'610789'
p4043
tp4044
a(S'154*451+745*20'
p4045
S'84354'
p4046
tp4047
a(S'867+412*930+843'
p4048
S'384870'
p4049
tp4050
a(S'72*704+974*677'
p4051
S'710086'
p4052
tp4053
a(S'851+471-603-218'
p4054
S'501'
p4055
tp4056
a(S'364+783*973*98'
p4057
S'74662546'
p4058
tp4059
a(S'760+730*485*956'
p4060
S'338472560'
p4061
tp4062
a(S'458-919-121*559'
p4063
S'-68100'
p4064
tp4065
a(S'354+651*426-833'
p4066
S'276847'
p4067
tp4068
a(S'825+590-502+881'
p4069
S'1794'
p4070
tp4071
a(S'778+605+620-142'
p4072
S'1861'
p4073
tp4074
a(S'486-834-11*128'
p4075
S'-1756'
p4076
tp4077
a(S'62+988+709*495'
p4078
S'352005'
p4079
tp4080
a(S'480*725*74-249'
p4081
S'25751751'
p4082
tp4083
a(S'925+486-623*373'
p4084
S'-230968'
p4085
tp4086
a(S'22-18+263+458'
p4087
S'725'
p4088
tp4089
a(S'513+247*151+921'
p4090
S'38731'
p4091
tp4092
a(S'838-405*605+813'
p4093
S'-243374'
p4094
tp4095
a(S'409-606*345+143'
p4096
S'-208518'
p4097
tp4098
a(S'581+780*533-812'
p4099
S'415509'
p4100
tp4101
a(S'822-491-819+732'
p4102
S'244'
p4103
tp4104
a(S'180+416+992-623'
p4105
S'965'
p4106
tp4107
a(S'978-493-888+338'
p4108
S'-65'
p4109
tp4110
a(S'893-239-398*894'
p4111
S'-355158'
p4112
tp4113
a(S'533-677*902+821'
p4114
S'-609300'
p4115
tp4116
a(S'347+897*822-497'
p4117
S'737184'
p4118
tp4119
a(S'710*278-689+975'
p4120
S'197666'
p4121
tp4122
a(S'121-916-620*607'
p4123
S'-377135'
p4124
tp4125
a(S'377-689*678*502'
p4126
S'-234504907'
p4127
tp4128
a(S'244+890-48*164'
p4129
S'-6738'
p4130
tp4131
a(S'518*628-121*331'
p4132
S'285253'
p4133
tp4134
a(S'912*320-91*821'
p4135
S'217129'
p4136
tp4137
a(S'851-841+821-535'
p4138
S'296'
p4139
tp4140
a(S'279-957*833*725'
p4141
S'-577955946'
p4142
tp4143
a(S'89-11*564+436'
p4144
S'-5679'
p4145
tp4146
a(S'701*985-830-259'
p4147
S'689396'
p4148
tp4149
a(S'258*512*30+512'
p4150
S'3963392'
p4151
tp4152
a(S'197-59-992-576'
p4153
S'-1430'
p4154
tp4155
a(S'886+965+135+810'
p4156
S'2796'
p4157
tp4158
a(S'921-824+6*301'
p4159
S'1903'
p4160
tp4161
a(S'433+633-753*146'
p4162
S'-108872'
p4163
tp4164
a(S'230+276-597*971'
p4165
S'-579181'
p4166
tp4167
a(S'120-699*332+885'
p4168
S'-231063'
p4169
tp4170
a(S'176+273+713-856'
p4171
S'306'
p4172
tp4173
a(S'513*893-957*386'
p4174
S'88707'
p4175
tp4176
a(S'44*206*599+320'
p4177
S'5429656'
p4178
tp4179
a(S'963*38+662+796'
p4180
S'38052'
p4181
tp4182
a(S'901+933*869*174'
p4183
S'141076099'
p4184
tp4185
a(S'996*316*993-796'
p4186
S'312532052'
p4187
tp4188
a(S'476+742+282*689'
p4189
S'195516'
p4190
tp4191
a(S'727+104+611-521'
p4192
S'921'
p4193
tp4194
a(S'710-286*596+936'
p4195
S'-168810'
p4196
tp4197
a(S'71+810-282*725'
p4198
S'-203569'
p4199
tp4200
a(S'402-710+89*325'
p4201
S'28617'
p4202
tp4203
a(S'716+196*560+332'
p4204
S'110808'
p4205
tp4206
a(S'82*612+808-181'
p4207
S'50811'
p4208
tp4209
a(S'192+309-994*281'
p4210
S'-278813'
p4211
tp4212
a(S'368+244-17*641'
p4213
S'-10285'
p4214
tp4215
a(S'376-736*307-458'
p4216
S'-226034'
p4217
tp4218
a(S'807-123*850+21'
p4219
S'-103722'
p4220
tp4221
a(S'57+882*832-540'
p4222
S'733341'
p4223
tp4224
a(S'19*291-653*400'
p4225
S'-255671'
p4226
tp4227
a(S'920-89*153-33'
p4228
S'-12730'
p4229
tp4230
a(S'515+766*406-588'
p4231
S'310923'
p4232
tp4233
a(S'167-347-68-970'
p4234
S'-1218'
p4235
tp4236
a(S'833-270-692+824'
p4237
S'695'
p4238
tp4239
a(S'690-209+989+128'
p4240
S'1598'
p4241
tp4242
a(S'994*480*524*481'
p4243
S'120255233280'
p4244
tp4245
a(S'321+121-665*71'
p4246
S'-46773'
p4247
tp4248
a(S'557+488*132-221'
p4249
S'64752'
p4250
tp4251
a(S'724*834+902-929'
p4252
S'603789'
p4253
tp4254
a(S'237+452*498*868'
p4255
S'195383565'
p4256
tp4257
a(S'969-137*364+536'
p4258
S'-48363'
p4259
tp4260
a(S'332+407-584*752'
p4261
S'-438429'
p4262
tp4263
a(S'669*242-522*47'
p4264
S'137364'
p4265
tp4266
a(S'577+227*93*162'
p4267
S'3420559'
p4268
tp4269
a(S'971-306-654-625'
p4270
S'-614'
p4271
tp4272
a(S'208+755+679*427'
p4273
S'290896'
p4274
tp4275
a(S'996+676*696-623'
p4276
S'470869'
p4277
tp4278
a(S'617-22*124+225'
p4279
S'-1886'
p4280
tp4281
a(S'672+733+832-507'
p4282
S'1730'
p4283
tp4284
a(S'538*515-239+890'
p4285
S'277721'
p4286
tp4287
a(S'826-374*800-766'
p4288
S'-299140'
p4289
tp4290
a(S'501+491*505-636'
p4291
S'247820'
p4292
tp4293
a(S'353-529*455*566'
p4294
S'-136233017'
p4295
tp4296
a(S'345+818-672+383'
p4297
S'874'
p4298
tp4299
a(S'289+456+909-759'
p4300
S'895'
p4301
tp4302
a(S'791+841+211*542'
p4303
S'115994'
p4304
tp4305
a(S'304-738-55*509'
p4306
S'-28429'
p4307
tp4308
a(S'636*500-321-901'
p4309
S'316778'
p4310
tp4311
a(S'142+565+346+301'
p4312
S'1354'
p4313
tp4314
a(S'559*495+28-780'
p4315
S'275953'
p4316
tp4317
a(S'833-147+791+2'
p4318
S'1479'
p4319
tp4320
a(S'266*176+547-636'
p4321
S'46727'
p4322
tp4323
a(S'398-162-443*602'
p4324
S'-266450'
p4325
tp4326
a(S'313+736+657-699'
p4327
S'1007'
p4328
tp4329
a(S'76+461+81+605'
p4330
S'1223'
p4331
tp4332
a(S'813-488*130+747'
p4333
S'-61880'
p4334
tp4335
a(S'557+1-414+52'
p4336
S'196'
p4337
tp4338
a(S'298-256+659*464'
p4339
S'305818'
p4340
tp4341
a(S'443+205*136*939'
p4342
S'26179763'
p4343
tp4344
a(S'867*345+977*125'
p4345
S'421240'
p4346
tp4347
a(S'340+246+803*32'
p4348
S'26282'
p4349
tp4350
a(S'205-156*904*491'
p4351
S'-69242579'
p4352
tp4353
a(S'423*165-795-941'
p4354
S'68059'
p4355
tp4356
a(S'749*663*206*11'
p4357
S'1125266142'
p4358
tp4359
a(S'116*211+897+298'
p4360
S'25671'
p4361
tp4362
a(S'934*712-657+929'
p4363
S'665280'
p4364
tp4365
a(S'861*390-785-670'
p4366
S'334335'
p4367
tp4368
a(S'878-260*953-664'
p4369
S'-247566'
p4370
tp4371
a(S'515*132+474-855'
p4372
S'67599'
p4373
tp4374
a(S'961+664*960-808'
p4375
S'637593'
p4376
tp4377
a(S'317-471-435*276'
p4378
S'-120214'
p4379
tp4380
a(S'1+995*818+376'
p4381
S'814287'
p4382
tp4383
a(S'619-67*678-325'
p4384
S'-45132'
p4385
tp4386
a(S'488+936*482+758'
p4387
S'452398'
p4388
tp4389
a(S'896*479-311+189'
p4390
S'429062'
p4391
tp4392
a(S'627*594-272*224'
p4393
S'311510'
p4394
tp4395
a(S'279*648+721+507'
p4396
S'182020'
p4397
tp4398
a(S'767+342+107-742'
p4399
S'474'
p4400
tp4401
a(S'759+999-779*600'
p4402
S'-465642'
p4403
tp4404
a(S'522*699-367*690'
p4405
S'111648'
p4406
tp4407
a(S'791*866*298+428'
p4408
S'204132216'
p4409
tp4410
a(S'745*856-626-686'
p4411
S'636408'
p4412
tp4413
a(S'182-669*744-667'
p4414
S'-498221'
p4415
tp4416
a(S'155-244-588+896'
p4417
S'219'
p4418
tp4419
a(S'472-60+533+238'
p4420
S'1183'
p4421
tp4422
a(S'570-260-13-709'
p4423
S'-412'
p4424
tp4425
a(S'391+189-792+613'
p4426
S'401'
p4427
tp4428
a(S'251*773-25+178'
p4429
S'194176'
p4430
tp4431
a(S'216-416+791*585'
p4432
S'462535'
p4433
tp4434
a(S'586-736*903-726'
p4435
S'-664748'
p4436
tp4437
a(S'706-267*918+346'
p4438
S'-244054'
p4439
tp4440
a(S'532-265+127+50'
p4441
S'444'
p4442
tp4443
a(S'252-815-136-100'
p4444
S'-799'
p4445
tp4446
a(S'42*3*268+861'
p4447
S'34629'
p4448
tp4449
a(S'927*461-761+28'
p4450
S'426614'
p4451
tp4452
a(S'106+349+871+980'
p4453
S'2306'
p4454
tp4455
a(S'774*976*521*427'
p4456
S'168056911008'
p4457
tp4458
a(S'954*505+893+189'
p4459
S'482852'
p4460
tp4461
a(S'643+98+478*745'
p4462
S'356851'
p4463
tp4464
a(S'811*863-425*861'
p4465
S'333968'
p4466
tp4467
a(S'286-245*6*413'
p4468
S'-606824'
p4469
tp4470
a(S'410*684+187+808'
p4471
S'281435'
p4472
tp4473
a(S'385*770-15*443'
p4474
S'289805'
p4475
tp4476
a(S'0*41-21*721'
p4477
S'-15141'
p4478
tp4479
a(S'98-2*994+302'
p4480
S'-1588'
p4481
tp4482
a(S'528*71*285-480'
p4483
S'10683600'
p4484
tp4485
a(S'500-140+350*259'
p4486
S'91010'
p4487
tp4488
a(S'139*560-392*723'
p4489
S'-205576'
p4490
tp4491
a(S'79-928+956*692'
p4492
S'660703'
p4493
tp4494
a(S'937*345-106-195'
p4495
S'322964'
p4496
tp4497
a(S'287*75-770*693'
p4498
S'-512085'
p4499
tp4500
a(S'127+163*26+78'
p4501
S'4443'
p4502
tp4503
a(S'574-237-528+361'
p4504
S'170'
p4505
tp4506
a(S'922-504+452*22'
p4507
S'10362'
p4508
tp4509
a(S'843*288-440*141'
p4510
S'180744'
p4511
tp4512
a(S'679-519-945-995'
p4513
S'-1780'
p4514
tp4515
a(S'840+625*161*913'
p4516
S'91871465'
p4517
tp4518
a(S'421-36*962*157'
p4519
S'-5436803'
p4520
tp4521
a(S'808+119+244+989'
p4522
S'2160'
p4523
tp4524
a(S'442-670+799-182'
p4525
S'389'
p4526
tp4527
a(S'355-252-709*974'
p4528
S'-690463'
p4529
tp4530
a(S'819-140+947-616'
p4531
S'1010'
p4532
tp4533
a(S'189-794*300*43'
p4534
S'-10242411'
p4535
tp4536
a(S'42+389*644*421'
p4537
S'105467278'
p4538
tp4539
a(S'678*233-481*142'
p4540
S'89672'
p4541
tp4542
a(S'142-541+63-417'
p4543
S'-753'
p4544
tp4545
a(S'550*21*184*990'
p4546
S'2103948000'
p4547
tp4548
a(S'585*360*519+709'
p4549
S'109302109'
p4550
tp4551
a(S'78+189*350*377'
p4552
S'24938628'
p4553
tp4554
a(S'826-305*80*244'
p4555
S'-5952774'
p4556
tp4557
a(S'44-776-345+529'
p4558
S'-548'
p4559
tp4560
a(S'283*312*977-709'
p4561
S'86264483'
p4562
tp4563
a(S'272+765*184*504'
p4564
S'70943312'
p4565
tp4566
a(S'818*920+96-319'
p4567
S'752337'
p4568
tp4569
a(S'234+256-89-109'
p4570
S'292'
p4571
tp4572
a(S'748*228-859+192'
p4573
S'169877'
p4574
tp4575
a(S'395*895+174*599'
p4576
S'457751'
p4577
tp4578
a(S'5-626-503+880'
p4579
S'-244'
p4580
tp4581
a(S'776+839+818+28'
p4582
S'2461'
p4583
tp4584
a(S'703+992-506-659'
p4585
S'530'
p4586
tp4587
a(S'793+877*572*567'
p4588
S'284432941'
p4589
tp4590
a(S'508+885*726*619'
p4591
S'397714198'
p4592
tp4593
a(S'892-5-678-323'
p4594
S'-114'
p4595
tp4596
a(S'357-935-439*233'
p4597
S'-102865'
p4598
tp4599
a(S'244+826+327-920'
p4600
S'477'
p4601
tp4602
a(S'84+775+987+140'
p4603
S'1986'
p4604
tp4605
a(S'277-564+473-176'
p4606
S'10'
p4607
tp4608
a(S'479-282*963*947'
p4609
S'-257172523'
p4610
tp4611
a(S'946*699+766+853'
p4612
S'662873'
p4613
tp4614
a(S'906+281*885-485'
p4615
S'249106'
p4616
tp4617
a(S'80-649-376-569'
p4618
S'-1514'
p4619
tp4620
a(S'704-530-114*59'
p4621
S'-6552'
p4622
tp4623
a(S'950*82+117-401'
p4624
S'77616'
p4625
tp4626
a(S'932-896*415+364'
p4627
S'-370544'
p4628
tp4629
a(S'519+62+90+861'
p4630
S'1532'
p4631
tp4632
a(S'558*387+430-866'
p4633
S'215510'
p4634
tp4635
a(S'987-60+191+622'
p4636
S'1740'
p4637
tp4638
a(S'49*334*375-992'
p4639
S'6136258'
p4640
tp4641
a(S'483*250+106*995'
p4642
S'226220'
p4643
tp4644
a(S'281*260*467-891'
p4645
S'34118129'
p4646
tp4647
a(S'714-176-560*961'
p4648
S'-537622'
p4649
tp4650
a(S'110+431*298*113'
p4651
S'14513604'
p4652
tp4653
a(S'547-513+241-884'
p4654
S'-609'
p4655
tp4656
a(S'55*364+237*170'
p4657
S'60310'
p4658
tp4659
a(S'588-380*275+314'
p4660
S'-103598'
p4661
tp4662
a(S'343-357+841*280'
p4663
S'235466'
p4664
tp4665
a(S'127*203*227*84'
p4666
S'491592108'
p4667
tp4668
a(S'99*108-865+400'
p4669
S'10227'
p4670
tp4671
a(S'89+61+730*124'
p4672
S'90670'
p4673
tp4674
a(S'615+58*228-948'
p4675
S'12891'
p4676
tp4677
a(S'70+462*172+323'
p4678
S'79857'
p4679
tp4680
a(S'435*844+562-547'
p4681
S'367155'
p4682
tp4683
a(S'22*200+518-644'
p4684
S'4274'
p4685
tp4686
a(S'844-191*718+59'
p4687
S'-136235'
p4688
tp4689
a(S'365*125*528+855'
p4690
S'24090855'
p4691
tp4692
a(S'61-949+295-520'
p4693
S'-1113'
p4694
tp4695
a(S'471+446-799-27'
p4696
S'91'
p4697
tp4698
a(S'507*16+567*653'
p4699
S'378363'
p4700
tp4701
a(S'983*314+885+338'
p4702
S'309885'
p4703
tp4704
a(S'749*925-66*928'
p4705
S'631577'
p4706
tp4707
a(S'778+272-293-913'
p4708
S'-156'
p4709
tp4710
a(S'9+956+175*752'
p4711
S'132565'
p4712
tp4713
a(S'368-912-145+553'
p4714
S'-136'
p4715
tp4716
a(S'428+935*865+508'
p4717
S'809711'
p4718
tp4719
a(S'561*304+504-415'
p4720
S'170633'
p4721
tp4722
a(S'575+556-195*932'
p4723
S'-180609'
p4724
tp4725
a(S'22+647*230+596'
p4726
S'149428'
p4727
tp4728
a(S'662*405*181-842'
p4729
S'48527068'
p4730
tp4731
a(S'181*659-230*418'
p4732
S'23139'
p4733
tp4734
a(S'670-729-196*34'
p4735
S'-6723'
p4736
tp4737
a(S'754*400+7-753'
p4738
S'300854'
p4739
tp4740
a(S'179-629*993*698'
p4741
S'-435968527'
p4742
tp4743
a(S'894+33+393-153'
p4744
S'1167'
p4745
tp4746
a(S'553+105-977+984'
p4747
S'665'
p4748
tp4749
a(S'453+701+480-231'
p4750
S'1403'
p4751
tp4752
a(S'35-243+45-884'
p4753
S'-1047'
p4754
tp4755
a(S'573+215+402+91'
p4756
S'1281'
p4757
tp4758
a(S'418-937+360*788'
p4759
S'283161'
p4760
tp4761
a(S'564-205*173+893'
p4762
S'-34008'
p4763
tp4764
a(S'769-683-186+661'
p4765
S'561'
p4766
tp4767
a(S'521-17+479*447'
p4768
S'214617'
p4769
tp4770
a(S'210-135-294-457'
p4771
S'-676'
p4772
tp4773
a(S'783+311+855+314'
p4774
S'2263'
p4775
tp4776
a(S'30-380-572-333'
p4777
S'-1255'
p4778
tp4779
a(S'900-910*929*218'
p4780
S'-184294120'
p4781
tp4782
a(S'532*415-153+604'
p4783
S'221231'
p4784
tp4785
a(S'554-875-969*353'
p4786
S'-342378'
p4787
tp4788
a(S'154-679+776+42'
p4789
S'293'
p4790
tp4791
a(S'938-911*201+417'
p4792
S'-181756'
p4793
tp4794
a(S'638+496*182*879'
p4795
S'79349726'
p4796
tp4797
a(S'156-50+451+791'
p4798
S'1348'
p4799
tp4800
a(S'511*664+691-308'
p4801
S'339687'
p4802
tp4803
a(S'469*686+57+637'
p4804
S'322428'
p4805
tp4806
a(S'689+708-759*189'
p4807
S'-142054'
p4808
tp4809
a(S'627-307*484+192'
p4810
S'-147769'
p4811
tp4812
a(S'275*925*439-98'
p4813
S'111670527'
p4814
tp4815
a(S'860-315+460+946'
p4816
S'1951'
p4817
tp4818
a(S'190*273*179+186'
p4819
S'9284916'
p4820
tp4821
a(S'355-683-779*163'
p4822
S'-127305'
p4823
tp4824
a(S'726+507*4+757'
p4825
S'3511'
p4826
tp4827
a(S'285+208+241-566'
p4828
S'168'
p4829
tp4830
a(S'363*540-127-668'
p4831
S'195225'
p4832
tp4833
a(S'289+387+693-701'
p4834
S'668'
p4835
tp4836
a(S'360+977*147+16'
p4837
S'143995'
p4838
tp4839
a(S'551*37+504*329'
p4840
S'186203'
p4841
tp4842
a(S'101-644*661+204'
p4843
S'-425379'
p4844
tp4845
a(S'392*735*370*585'
p4846
S'62363574000'
p4847
tp4848
a(S'831+150-937+100'
p4849
S'144'
p4850
tp4851
a(S'894+806+460*280'
p4852
S'130500'
p4853
tp4854
a(S'801+126-653*227'
p4855
S'-147304'
p4856
tp4857
a(S'676*83-206+838'
p4858
S'56740'
p4859
tp4860
a(S'898+855-184+485'
p4861
S'2054'
p4862
tp4863
a(S'604+493-242-192'
p4864
S'663'
p4865
tp4866
a(S'125-159+806-504'
p4867
S'268'
p4868
tp4869
a(S'741-236*150-839'
p4870
S'-35498'
p4871
tp4872
a(S'763*294+402+924'
p4873
S'225648'
p4874
tp4875
a(S'215+187+101-2'
p4876
S'501'
p4877
tp4878
a(S'611-274*19-395'
p4879
S'-4990'
p4880
tp4881
a(S'272-818*439+505'
p4882
S'-358325'
p4883
tp4884
a(S'273-718*743-294'
p4885
S'-533495'
p4886
tp4887
a(S'562+129-664-522'
p4888
S'-495'
p4889
tp4890
a(S'908*311*48+282'
p4891
S'13554906'
p4892
tp4893
a(S'957+832*533*671'
p4894
S'297559933'
p4895
tp4896
a(S'930*883-703*767'
p4897
S'281989'
p4898
tp4899
a(S'875-950+902*102'
p4900
S'91929'
p4901
tp4902
a(S'927*688-466+380'
p4903
S'637690'
p4904
tp4905
a(S'423-524+470-75'
p4906
S'294'
p4907
tp4908
a(S'930-681-674*54'
p4909
S'-36147'
p4910
tp4911
a(S'590*197-563-417'
p4912
S'115250'
p4913
tp4914
a(S'116*612*178-509'
p4915
S'12636067'
p4916
tp4917
a(S'619+152*74*851'
p4918
S'9572667'
p4919
tp4920
a(S'411+346*858-381'
p4921
S'296898'
p4922
tp4923
a(S'825*333-597*651'
p4924
S'-113922'
p4925
tp4926
a(S'287-314-964+973'
p4927
S'-18'
p4928
tp4929
a(S'553+584-672*978'
p4930
S'-656079'
p4931
tp4932
a(S'211-617-777*291'
p4933
S'-226513'
p4934
tp4935
a(S'353+913*141-922'
p4936
S'128164'
p4937
tp4938
a(S'635-15*131+827'
p4939
S'-503'
p4940
tp4941
a(S'911-620*460*25'
p4942
S'-7129089'
p4943
tp4944
a(S'41+0*1-925'
p4945
S'-884'
p4946
tp4947
a(S'87-15-198*275'
p4948
S'-54378'
p4949
tp4950
a(S'990+638*538*811'
p4951
S'278371874'
p4952
tp4953
a(S'355-657*654-379'
p4954
S'-429702'
p4955
tp4956
a(S'914+450-205+532'
p4957
S'1691'
p4958
tp4959
a(S'509*960-942*355'
p4960
S'154230'
p4961
tp4962
a(S'572-466-209+41'
p4963
S'-62'
p4964
tp4965
a(S'946*85-234-370'
p4966
S'79806'
p4967
tp4968
a(S'347-237-479+680'
p4969
S'311'
p4970
tp4971
a(S'914-722*754+684'
p4972
S'-542790'
p4973
tp4974
a(S'990-892+856+961'
p4975
S'1915'
p4976
tp4977
a(S'225-3*505*568'
p4978
S'-860295'
p4979
tp4980
a(S'728*948-829*745'
p4981
S'72539'
p4982
tp4983
a(S'264+485-313-144'
p4984
S'292'
p4985
tp4986
a(S'519*634-566-459'
p4987
S'328021'
p4988
tp4989
a(S'337-214+184*170'
p4990
S'31403'
p4991
tp4992
a(S'31+644+413+685'
p4993
S'1773'
p4994
tp4995
a(S'567-92-624+706'
p4996
S'557'
p4997
tp4998
a(S'174-748*180+209'
p4999
S'-134257'
p5000
tp5001
a(S'106-988+241-827'
p5002
S'-1468'
p5003
tp5004
a(S'814-330+620+684'
p5005
S'1788'
p5006
tp5007
a(S'871+73-874+779'
p5008
S'849'
p5009
tp5010
a(S'851*810*281-393'
p5011
S'193695717'
p5012
tp5013
a(S'160*223+174-311'
p5014
S'35543'
p5015
tp5016
a(S'729+258-19+306'
p5017
S'1274'
p5018
tp5019
a(S'220+370+611+203'
p5020
S'1404'
p5021
tp5022
a(S'202-9-74*518'
p5023
S'-38139'
p5024
tp5025
a(S'706+953-903*378'
p5026
S'-339675'
p5027
tp5028
a(S'900+305-512-405'
p5029
S'288'
p5030
tp5031
a(S'738+268-211+891'
p5032
S'1686'
p5033
tp5034
a(S'771-393-44+349'
p5035
S'683'
p5036
tp5037
a(S'431*497-858*62'
p5038
S'161011'
p5039
tp5040
a(S'933-552*138*653'
p5041
S'-49741995'
p5042
tp5043
a(S'841*124*856-551'
p5044
S'89266553'
p5045
tp5046
a(S'731+30-549-387'
p5047
S'-175'
p5048
tp5049
a(S'972-206*653*747'
p5050
S'-100483974'
p5051
tp5052
a(S'355+338-619-833'
p5053
S'-759'
p5054
tp5055
a(S'434*681+57*769'
p5056
S'339387'
p5057
tp5058
a(S'395*695-696-672'
p5059
S'273157'
p5060
tp5061
a(S'521*951-847-720'
p5062
S'493904'
p5063
tp5064
a(S'415-180-724*76'
p5065
S'-54789'
p5066
tp5067
a(S'770*262*805*815'
p5068
S'132356570500'
p5069
tp5070
a(S'424+172+320-679'
p5071
S'237'
p5072
tp5073
a(S'734*296*595-398'
p5074
S'129271682'
p5075
tp5076
a(S'28+210+603*846'
p5077
S'510376'
p5078
tp5079
a(S'678-835-988+600'
p5080
S'-545'
p5081
tp5082
a(S'168+251-742*419'
p5083
S'-310479'
p5084
tp5085
a(S'50+225-171-818'
p5086
S'-714'
p5087
tp5088
a(S'227*456-77-446'
p5089
S'102989'
p5090
tp5091
a(S'637-622+630*400'
p5092
S'252015'
p5093
tp5094
a(S'750-618-5*989'
p5095
S'-4813'
p5096
tp5097
a(S'103+817+466*145'
p5098
S'68490'
p5099
tp5100
a(S'318+243-979+187'
p5101
S'-231'
p5102
tp5103
a(S'972-754+974-475'
p5104
S'717'
p5105
tp5106
a(S'350*30+435+776'
p5107
S'11711'
p5108
tp5109
a(S'240-116-991+364'
p5110
S'-503'
p5111
tp5112
a(S'230*179*209+244'
p5113
S'8604774'
p5114
tp5115
a(S'433+120*167-867'
p5116
S'19606'
p5117
tp5118
a(S'841+278-231+134'
p5119
S'1022'
p5120
tp5121
a(S'560+835*949-982'
p5122
S'791993'
p5123
tp5124
a(S'359+406*960+871'
p5125
S'390990'
p5126
tp5127
a(S'377-687+799-189'
p5128
S'300'
p5129
tp5130
a(S'820*630-176*591'
p5131
S'412584'
p5132
tp5133
a(S'789*726-780-438'
p5134
S'571596'
p5135
tp5136
a(S'746-114+191+425'
p5137
S'1248'
p5138
tp5139
a(S'885-923-139-779'
p5140
S'-956'
p5141
tp5142
a(S'789-214*456+531'
p5143
S'-96264'
p5144
tp5145
a(S'723-204+960-324'
p5146
S'1155'
p5147
tp5148
a(S'689+837+574-319'
p5149
S'1781'
p5150
tp5151
a(S'649-640*212*459'
p5152
S'-62276471'
p5153
tp5154
a(S'86+648*769*447'
p5155
S'222745550'
p5156
tp5157
a(S'602+442*69+231'
p5158
S'31331'
p5159
tp5160
a(S'347*636-396+621'
p5161
S'220917'
p5162
tp5163
a(S'567-421+171-791'
p5164
S'-474'
p5165
tp5166
a(S'128*498+281*709'
p5167
S'262973'
p5168
tp5169
a(S'323*449+659-385'
p5170
S'145301'
p5171
tp5172
a(S'211+88*913-987'
p5173
S'79568'
p5174
tp5175
a(S'877*462*303-331'
p5176
S'122767391'
p5177
tp5178
a(S'228-159-601-179'
p5179
S'-711'
p5180
tp5181
a(S'772+791+348*912'
p5182
S'318939'
p5183
tp5184
a(S'192-875*208*171'
p5185
S'-31121808'
p5186
tp5187
a(S'546*303-896*751'
p5188
S'-507458'
p5189
tp5190
a(S'291-492*126+707'
p5191
S'-60994'
p5192
tp5193
a(S'165-763*153*214'
p5194
S'-24981981'
p5195
tp5196
a(S'524-689-567*681'
p5197
S'-386292'
p5198
tp5199
a(S'620-606*81*438'
p5200
S'-21499048'
p5201
tp5202
a(S'434*553*524+786'
p5203
S'125761834'
p5204
tp5205
a(S'335*64*384+913'
p5206
S'8233873'
p5207
tp5208
a(S'360+87-770*361'
p5209
S'-277523'
p5210
tp5211
a(S'166+850+204+441'
p5212
S'1661'
p5213
tp5214
a(S'255-684*121*347'
p5215
S'-28718853'
p5216
tp5217
a(S'127*750-895*257'
p5218
S'-134765'
p5219
tp5220
a(S'457*944*877+978'
p5221
S'378345794'
p5222
tp5223
a(S'439-631+570-596'
p5224
S'-218'
p5225
tp5226
a(S'940+561+921-404'
p5227
S'2018'
p5228
tp5229
a(S'511+578-346*822'
p5230
S'-283323'
p5231
tp5232
a(S'370*711-603*684'
p5233
S'-149382'
p5234
tp5235
a(S'752+84+397-515'
p5236
S'718'
p5237
tp5238
a(S'929+375*592*696'
p5239
S'154512929'
p5240
tp5241
a(S'882+44+157*700'
p5242
S'110826'
p5243
tp5244
a(S'310-509+703+595'
p5245
S'1099'
p5246
tp5247
a(S'360*177+553-76'
p5248
S'64197'
p5249
tp5250
a(S'900+746-691+610'
p5251
S'1565'
p5252
tp5253
a(S'133*378+281+24'
p5254
S'50579'
p5255
tp5256
a(S'929*450-281*857'
p5257
S'177233'
p5258
tp5259
a(S'451+738*956+678'
p5260
S'706657'
p5261
tp5262
a(S'879*271-337*586'
p5263
S'40727'
p5264
tp5265
a(S'720*127-570+752'
p5266
S'91622'
p5267
tp5268
a(S'854+29+930+173'
p5269
S'1986'
p5270
tp5271
a(S'62-55*448*761'
p5272
S'-18750978'
p5273
tp5274
a(S'769-957+953+77'
p5275
S'842'
p5276
tp5277
a(S'372+678*989-597'
p5278
S'670317'
p5279
tp5280
a(S'154+495*318+949'
p5281
S'158513'
p5282
tp5283
a(S'551+336-324-300'
p5284
S'263'
p5285
tp5286
a(S'78-695*163+901'
p5287
S'-112306'
p5288
tp5289
a(S'441*796*683*405'
p5290
S'97101823140'
p5291
tp5292
a(S'8-399*391-382'
p5293
S'-156383'
p5294
tp5295
a(S'857-659+300-841'
p5296
S'-343'
p5297
tp5298
a(S'353+85-744-18'
p5299
S'-324'
p5300
tp5301
a(S'261+670-403-352'
p5302
S'176'
p5303
tp5304
a(S'676-453+61-478'
p5305
S'-194'
p5306
tp5307
a(S'149-275-49*12'
p5308
S'-714'
p5309
tp5310
a(S'43*196-540-388'
p5311
S'7500'
p5312
tp5313
a(S'627*655-746+828'
p5314
S'410767'
p5315
tp5316
a(S'250+958*297+686'
p5317
S'285462'
p5318
tp5319
a(S'869-142*89*259'
p5320
S'-3272373'
p5321
tp5322
a(S'981*714-257+52'
p5323
S'700229'
p5324
tp5325
a(S'969+219+51+58'
p5326
S'1297'
p5327
tp5328
a(S'437*989*829-592'
p5329
S'358287405'
p5330
tp5331
a(S'171*588-733-812'
p5332
S'99003'
p5333
tp5334
a(S'794+32-469*12'
p5335
S'-4802'
p5336
tp5337
a(S'431+633-395*853'
p5338
S'-335871'
p5339
tp5340
a(S'960-30*963-993'
p5341
S'-28923'
p5342
tp5343
a(S'74+149-598*138'
p5344
S'-82301'
p5345
tp5346
a(S'82+412*81-718'
p5347
S'32736'
p5348
tp5349
a(S'591-737-806*546'
p5350
S'-440222'
p5351
tp5352
a(S'716-478*216-564'
p5353
S'-103096'
p5354
tp5355
a(S'778-531-583-899'
p5356
S'-1235'
p5357
tp5358
a(S'384-411+156*337'
p5359
S'52545'
p5360
tp5361
a(S'58-990-771*585'
p5362
S'-451967'
p5363
tp5364
a(S'473*863+645-584'
p5365
S'408260'
p5366
tp5367
a(S'84*879+253-984'
p5368
S'73105'
p5369
tp5370
a(S'728*995*341*738'
p5371
S'182290988880'
p5372
tp5373
a(S'559+440-822-381'
p5374
S'-204'
p5375
tp5376
a(S'547+5+144-366'
p5377
S'330'
p5378
tp5379
a(S'545*584*552-581'
p5380
S'175689979'
p5381
tp5382
a(S'249-539*603*813'
p5383
S'-264238572'
p5384
tp5385
a(S'622+306-307+980'
p5386
S'1601'
p5387
tp5388
a(S'558+298-469-882'
p5389
S'-495'
p5390
tp5391
a(S'170+869*126*451'
p5392
S'49381964'
p5393
tp5394
a(S'861-610*767+982'
p5395
S'-466027'
p5396
tp5397
a(S'669-951*830+288'
p5398
S'-788373'
p5399
tp5400
a(S'418*579+592-608'
p5401
S'242006'
p5402
tp5403
a(S'488*820*68*912'
p5404
S'24816322560'
p5405
tp5406
a(S'533+639+748-737'
p5407
S'1183'
p5408
tp5409
a(S'808*513-874-556'
p5410
S'413074'
p5411
tp5412
a(S'141*322+952+649'
p5413
S'47003'
p5414
tp5415
a(S'736*179*291-36'
p5416
S'38337468'
p5417
tp5418
a(S'820-661-190+708'
p5419
S'677'
p5420
tp5421
a(S'731-397-813-157'
p5422
S'-636'
p5423
tp5424
a(S'751+666-251*544'
p5425
S'-135127'
p5426
tp5427
a(S'366*411*899+946'
p5428
S'135233920'
p5429
tp5430
a(S'520*454-353-358'
p5431
S'235369'
p5432
tp5433
a(S'326+436*439+359'
p5434
S'192089'
p5435
tp5436
a(S'789*660+992-356'
p5437
S'521376'
p5438
tp5439
a(S'558+371+473*224'
p5440
S'106881'
p5441
tp5442
a(S'40*797*914*512'
p5443
S'14918819840'
p5444
tp5445
a(S'923*880-806-348'
p5446
S'811086'
p5447
tp5448
a(S'408-410*623*258'
p5449
S'-65900532'
p5450
tp5451
a(S'382*85*803*280'
p5452
S'7300554800'
p5453
tp5454
a(S'847+69-143*713'
p5455
S'-101043'
p5456
tp5457
a(S'493+60+936-813'
p5458
S'676'
p5459
tp5460
a(S'97-417*963*408'
p5461
S'-163840871'
p5462
tp5463
a(S'92+719*497+190'
p5464
S'357625'
p5465
tp5466
a(S'590+399+80+726'
p5467
S'1795'
p5468
tp5469
a(S'16-754*858-768'
p5470
S'-647684'
p5471
tp5472
a(S'454*179*766+554'
p5473
S'62250310'
p5474
tp5475
a(S'716-430-784-741'
p5476
S'-1239'
p5477
tp5478
a(S'321*37-7*720'
p5479
S'6837'
p5480
tp5481
a(S'483-457-131-305'
p5482
S'-410'
p5483
tp5484
a(S'967+309*860*911'
p5485
S'242090107'
p5486
tp5487
a(S'231+113+152-810'
p5488
S'-314'
p5489
tp5490
a(S'910*90+978+107'
p5491
S'82985'
p5492
tp5493
a(S'297+963+96*670'
p5494
S'65580'
p5495
tp5496
a(S'186*277-55+110'
p5497
S'51577'
p5498
tp5499
a(S'995+535*443*412'
p5500
S'97647055'
p5501
tp5502
a(S'909+926+764+774'
p5503
S'3373'
p5504
tp5505
a(S'312+456*750-546'
p5506
S'341766'
p5507
tp5508
a(S'917+524+624-492'
p5509
S'1573'
p5510
tp5511
a(S'560+773-149+563'
p5512
S'1747'
p5513
tp5514
a(S'387+77+655*303'
p5515
S'198929'
p5516
tp5517
a(S'51*753*925+376'
p5518
S'35523151'
p5519
tp5520
a(S'189+844+254-659'
p5521
S'628'
p5522
tp5523
a(S'414-166-281*493'
p5524
S'-138285'
p5525
tp5526
a(S'33+402*360*720'
p5527
S'104198433'
p5528
tp5529
a(S'998*480+736+248'
p5530
S'480024'
p5531
tp5532
a(S'239+975-520*254'
p5533
S'-130866'
p5534
tp5535
a(S'707-158+426-628'
p5536
S'347'
p5537
tp5538
a(S'177+308-919-681'
p5539
S'-1115'
p5540
tp5541
a(S'476+333-499-910'
p5542
S'-600'
p5543
tp5544
a(S'416*961+716+79'
p5545
S'400571'
p5546
tp5547
a(S'279-716*574*18'
p5548
S'-7397433'
p5549
tp5550
a(S'252*768+833-202'
p5551
S'194167'
p5552
tp5553
a(S'984*301*402-124'
p5554
S'119065844'
p5555
tp5556
a(S'592+841+568-303'
p5557
S'1698'
p5558
tp5559
a(S'935+295+227+839'
p5560
S'2296'
p5561
tp5562
a(S'909-417+324*275'
p5563
S'89592'
p5564
tp5565
a(S'163*441+963+426'
p5566
S'73272'
p5567
tp5568
a(S'802+327-970+9'
p5569
S'168'
p5570
tp5571
a(S'345-38+14-242'
p5572
S'79'
p5573
tp5574
a(S'438-947-432*556'
p5575
S'-240701'
p5576
tp5577
a(S'581*421-867*347'
p5578
S'-56248'
p5579
tp5580
a(S'500-694*546-318'
p5581
S'-378742'
p5582
tp5583
a(S'667+692*13+565'
p5584
S'10228'
p5585
tp5586
a(S'383+897-244*964'
p5587
S'-233936'
p5588
tp5589
a(S'746*449+926+586'
p5590
S'336466'
p5591
tp5592
a(S'386-644*825-280'
p5593
S'-531194'
p5594
tp5595
a(S'31*75+427-163'
p5596
S'2589'
p5597
tp5598
a(S'40-936+563+386'
p5599
S'53'
p5600
tp5601
a(S'146*99+606+782'
p5602
S'15842'
p5603
tp5604
a(S'530+22*649+721'
p5605
S'15529'
p5606
tp5607
a(S'240-852*528*32'
p5608
S'-14395152'
p5609
tp5610
a(S'131-774-652-484'
p5611
S'-1779'
p5612
tp5613
a(S'303*300*3+912'
p5614
S'273612'
p5615
tp5616
a(S'328*471*693*494'
p5617
S'52887730896'
p5618
tp5619
a(S'130-488+727*15'
p5620
S'10547'
p5621
tp5622
a(S'715-192+728*201'
p5623
S'146851'
p5624
tp5625
a(S'96*958+870-304'
p5626
S'92534'
p5627
tp5628
a(S'383*962-818*107'
p5629
S'280920'
p5630
tp5631
a(S'567+256-182-690'
p5632
S'-49'
p5633
tp5634
a(S'221+176*784*23'
p5635
S'3173853'
p5636
tp5637
a(S'412+887+710*792'
p5638
S'563619'
p5639
tp5640
a(S'237*551*264-977'
p5641
S'34473991'
p5642
tp5643
a(S'313*961*149*125'
p5644
S'5602269625'
p5645
tp5646
a(S'338*802-87-910'
p5647
S'270079'
p5648
tp5649
a(S'409*178+168-400'
p5650
S'72570'
p5651
tp5652
a(S'324+286-946+227'
p5653
S'-109'
p5654
tp5655
a(S'31+403*677-773'
p5656
S'272089'
p5657
tp5658
a(S'2*188-479*901'
p5659
S'-431203'
p5660
tp5661
a(S'344*25*377+172'
p5662
S'3242372'
p5663
tp5664
a(S'83+425-779+648'
p5665
S'377'
p5666
tp5667
a(S'760*629-563-219'
p5668
S'477258'
p5669
tp5670
a(S'931*143-837-983'
p5671
S'131313'
p5672
tp5673
a(S'169*649+418*210'
p5674
S'197461'
p5675
tp5676
a(S'750+100*678-935'
p5677
S'67615'
p5678
tp5679
a(S'88*445*758*824'
p5680
S'24459022720'
p5681
tp5682
a(S'394+534+437-13'
p5683
S'1352'
p5684
tp5685
a(S'954+821-508+550'
p5686
S'1817'
p5687
tp5688
a(S'615*487*114-342'
p5689
S'34143228'
p5690
tp5691
a(S'136+583+198-642'
p5692
S'275'
p5693
tp5694
a(S'215-698*324*965'
p5695
S'-218236465'
p5696
tp5697
a(S'809*218-107+815'
p5698
S'177070'
p5699
tp5700
a(S'377-165*546*459'
p5701
S'-41350933'
p5702
tp5703
a(S'102-91-679-297'
p5704
S'-965'
p5705
tp5706
a(S'340+891*31-16'
p5707
S'27945'
p5708
tp5709
a(S'221-591+286-149'
p5710
S'-233'
p5711
tp5712
a(S'577-766+994-163'
p5713
S'642'
p5714
tp5715
a(S'192+540*734+772'
p5716
S'397324'
p5717
tp5718
a(S'195-998-937+809'
p5719
S'-931'
p5720
tp5721
a(S'446*961*633-780'
p5722
S'271306818'
p5723
tp5724
a(S'269-338-148+757'
p5725
S'540'
p5726
tp5727
a(S'646-885+2*406'
p5728
S'573'
p5729
tp5730
a(S'821-455-128-472'
p5731
S'-234'
p5732
tp5733
a(S'661-949-179*644'
p5734
S'-115564'
p5735
tp5736
a(S'375*994*804+399'
p5737
S'299691399'
p5738
tp5739
a(S'107+828*297+331'
p5740
S'246354'
p5741
tp5742
a(S'105*35+265*776'
p5743
S'209315'
p5744
tp5745
a(S'923*934-839-93'
p5746
S'861150'
p5747
tp5748
a(S'280*957*903*880'
p5749
S'212931734400'
p5750
tp5751
a(S'126+949*161*839'
p5752
S'128190097'
p5753
tp5754
a(S'907-118*678*660'
p5755
S'-52801733'
p5756
tp5757
a(S'747-994*956-788'
p5758
S'-950305'
p5759
tp5760
a(S'237*951+932-415'
p5761
S'225904'
p5762
tp5763
a(S'719-246+573*625'
p5764
S'358598'
p5765
tp5766
a(S'722*137*741+903'
p5767
S'73296177'
p5768
tp5769
a(S'989*779-101*403'
p5770
S'729728'
p5771
tp5772
a(S'833+411*556*175'
p5773
S'39991133'
p5774
tp5775
a(S'972+504*979+654'
p5776
S'495042'
p5777
tp5778
a(S'68-258+697*45'
p5779
S'31175'
p5780
tp5781
a(S'707+404-672+111'
p5782
S'550'
p5783
tp5784
a(S'615*725*67-402'
p5785
S'29873223'
p5786
tp5787
a(S'392+194+391*733'
p5788
S'287189'
p5789
tp5790
a(S'250-953-679-931'
p5791
S'-2313'
p5792
tp5793
a(S'890*189-85*420'
p5794
S'132510'
p5795
tp5796
a(S'596+336*892*206'
p5797
S'61741268'
p5798
tp5799
a(S'733+236-837-411'
p5800
S'-279'
p5801
tp5802
a(S'512-165+462+13'
p5803
S'822'
p5804
tp5805
a(S'60+325+909+920'
p5806
S'2214'
p5807
tp5808
a(S'253-949*504-986'
p5809
S'-479029'
p5810
tp5811
a(S'333-577*464-750'
p5812
S'-268145'
p5813
tp5814
a(S'667*746+867-70'
p5815
S'498379'
p5816
tp5817
a(S'958*788*387-115'
p5818
S'292147733'
p5819
tp5820
a(S'75*230-689-54'
p5821
S'16507'
p5822
tp5823
a(S'618*817+99+442'
p5824
S'505447'
p5825
tp5826
a(S'595+143+125+73'
p5827
S'936'
p5828
tp5829
a(S'424-922-373+837'
p5830
S'-34'
p5831
tp5832
a(S'157-593+429*52'
p5833
S'21872'
p5834
tp5835
a(S'340*234*380-302'
p5836
S'30232498'
p5837
tp5838
a(S'151-892*31+271'
p5839
S'-27230'
p5840
tp5841
a(S'364-553*850*49'
p5842
S'-23032086'
p5843
tp5844
a(S'217*725*798-192'
p5845
S'125545158'
p5846
tp5847
a(S'158*745*30+429'
p5848
S'3531729'
p5849
tp5850
a(S'726+934+346*530'
p5851
S'185040'
p5852
tp5853
a(S'431-259*813+376'
p5854
S'-209760'
p5855
tp5856
a(S'593+83-65-449'
p5857
S'162'
p5858
tp5859
a(S'934-165+580-225'
p5860
S'1124'
p5861
tp5862
a(S'787*252-90-170'
p5863
S'198064'
p5864
tp5865
a(S'526+138-249*688'
p5866
S'-170648'
p5867
tp5868
a(S'733*226*580+471'
p5869
S'96082111'
p5870
tp5871
a(S'322-742-36+170'
p5872
S'-286'
p5873
tp5874
a(S'185-812*716-627'
p5875
S'-581834'
p5876
tp5877
a(S'687-226-853+644'
p5878
S'252'
p5879
tp5880
a(S'325+883*698*953'
p5881
S'587366627'
p5882
tp5883
a(S'626-748+512*759'
p5884
S'388486'
p5885
tp5886
a(S'215+292-148*592'
p5887
S'-87109'
p5888
tp5889
a(S'549+528*488-266'
p5890
S'257947'
p5891
tp5892
a(S'66+768*86-463'
p5893
S'65651'
p5894
tp5895
a(S'311-892*190+674'
p5896
S'-168495'
p5897
tp5898
a(S'0-346*991+266'
p5899
S'-342620'
p5900
tp5901
a(S'603-469-807*924'
p5902
S'-745534'
p5903
tp5904
a(S'26+164-64-799'
p5905
S'-673'
p5906
tp5907
a(S'664*927*467*602'
p5908
S'173045848752'
p5909
tp5910
a(S'428*279-277*331'
p5911
S'27725'
p5912
tp5913
a(S'326+768*122+135'
p5914
S'94157'
p5915
tp5916
a(S'665+430*722*693'
p5917
S'215149445'
p5918
tp5919
a(S'202*638+574*29'
p5920
S'145522'
p5921
tp5922
a(S'769+259*653*896'
p5923
S'151538561'
p5924
tp5925
a(S'302+88+342*417'
p5926
S'143004'
p5927
tp5928
a(S'950+570-752*189'
p5929
S'-140608'
p5930
tp5931
a(S'179-490-470*380'
p5932
S'-178911'
p5933
tp5934
a(S'541-48-419+896'
p5935
S'970'
p5936
tp5937
a(S'205-899+836+511'
p5938
S'653'
p5939
tp5940
a(S'737+621-292+590'
p5941
S'1656'
p5942
tp5943
a(S'73*979+459-545'
p5944
S'71381'
p5945
tp5946
a(S'926-351*471+433'
p5947
S'-163962'
p5948
tp5949
a(S'471+146*605+743'
p5950
S'89544'
p5951
tp5952
a(S'829-479-665*604'
p5953
S'-401310'
p5954
tp5955
a(S'584+120+560+292'
p5956
S'1556'
p5957
tp5958
a(S'121+950*649*674'
p5959
S'415554821'
p5960
tp5961
a(S'895*492*193-237'
p5962
S'84985383'
p5963
tp5964
a(S'834-128-54+836'
p5965
S'1488'
p5966
tp5967
a(S'973*853+118*290'
p5968
S'864189'
p5969
tp5970
a(S'607*651+830*133'
p5971
S'505547'
p5972
tp5973
a(S'546*840*80+922'
p5974
S'36692122'
p5975
tp5976
a(S'582-235*747-33'
p5977
S'-174996'
p5978
tp5979
a(S'411-960+34+132'
p5980
S'-383'
p5981
tp5982
a(S'10*391+732*424'
p5983
S'314278'
p5984
tp5985
a(S'344-282-762+12'
p5986
S'-688'
p5987
tp5988
a(S'655+940-911+426'
p5989
S'1110'
p5990
tp5991
a(S'507*614+613*966'
p5992
S'903456'
p5993
tp5994
a(S'942-289*18*895'
p5995
S'-4654848'
p5996
tp5997
a(S'740*376*765+950'
p5998
S'212854550'
p5999
tp6000
a.