(lp0
(S'53*98'
p1
S'5194'
p2
tp3
a(S'51*26'
p4
S'1326'
p5
tp6
a(S'93*83'
p7
S'7719'
p8
tp9
a(S'9*81'
p10
S'729'
p11
tp12
a(S'97*82'
p13
S'7954'
p14
tp15
a(S'13*90'
p16
S'1170'
p17
tp18
a(S'82*75'
p19
S'6150'
p20
tp21
a(S'77*54'
p22
S'4158'
p23
tp24
a(S'86*93'
p25
S'7998'
p26
tp27
a(S'3*20'
p28
S'60'
p29
tp30
a(S'60*41'
p31
S'2460'
p32
tp33
a(S'75*74'
p34
S'5550'
p35
tp36
a(S'19*63'
p37
S'1197'
p38
tp39
a(S'9*46'
p40
S'414'
p41
tp42
a(S'34*30'
p43
S'1020'
p44
tp45
a(S'81*75'
p46
S'6075'
p47
tp48
a(S'22*48'
p49
S'1056'
p50
tp51
a(S'73*12'
p52
S'876'
p53
tp54
a(S'72*33'
p55
S'2376'
p56
tp57
a(S'10*55'
p58
S'550'
p59
tp60
a(S'93*6'
p61
S'558'
p62
tp63
a(S'52*58'
p64
S'3016'
p65
tp66
a(S'31*20'
p67
S'620'
p68
tp69
a(S'78*64'
p70
S'4992'
p71
tp72
a(S'89*7'
p73
S'623'
p74
tp75
a(S'92*46'
p76
S'4232'
p77
tp78
a(S'79*66'
p79
S'5214'
p80
tp81
a(S'54*6'
p82
S'324'
p83
tp84
a(S'56*26'
p85
S'1456'
p86
tp87
a(S'49*17'
p88
S'833'
p89
tp90
a(S'99*7'
p91
S'693'
p92
tp93
a(S'24*11'
p94
S'264'
p95
tp96
a(S'57*56'
p97
S'3192'
p98
tp99
a(S'10*45'
p100
S'450'
p101
tp102
a(S'58*77'
p103
S'4466'
p104
tp105
a(S'36*89'
p106
S'3204'
p107
tp108
a(S'67*21'
p109
S'1407'
p110
tp111
a(S'30*87'
p112
S'2610'
p113
tp114
a(S'71*93'
p115
S'6603'
p116
tp117
a(S'24*12'
p118
S'288'
p119
tp120
a(S'94*22'
p121
S'2068'
p122
tp123
a(S'72*28'
p124
S'2016'
p125
tp126
a(S'23*43'
p127
S'989'
p128
tp129
a(S'31*8'
p130
S'248'
p131
tp132
a(S'23*34'
p133
S'782'
p134
tp135
a(S'48*54'
p136
S'2592'
p137
tp138
a(S'16*71'
p139
S'1136'
p140
tp141
a(S'92*29'
p142
S'2668'
p143
tp144
a(S'92*47'
p145
S'4324'
p146
tp147
a(S'69*70'
p148
S'4830'
p149
tp150
a(S'48*90'
p151
S'4320'
p152
tp153
a(S'3*89'
p154
S'267'
p155
tp156
a(S'71*69'
p157
S'4899'
p158
tp159
a(S'5*88'
p160
S'440'
p161
tp162
a(S'84*60'
p163
S'5040'
p164
tp165
a(S'11*81'
p166
S'891'
p167
tp168
a(S'38*74'
p169
S'2812'
p170
tp171
a(S'69*2'
p172
S'138'
p173
tp174
a(S'24*23'
p175
S'552'
p176
tp177
a(S'66*43'
p178
S'2838'
p179
tp180
a(S'37*18'
p181
S'666'
p182
tp183
a(S'1*29'
p184
S'29'
p185
tp186
a(S'94*87'
p187
S'8178'
p188
tp189
a(S'41*89'
p190
S'3649'
p191
tp192
a(S'35*51'
p193
S'1785'
p194
tp195
a(S'43*94'
p196
S'4042'
p197
tp198
a(S'75*90'
p199
S'6750'
p200
tp201
a(S'16*79'
p202
S'1264'
p203
tp204
a(S'21*98'
p205
S'2058'
p206
tp207
a(S'85*0'
p208
S'0'
p209
tp210
a(S'97*99'
p211
S'9603'
p212
tp213
a(S'87*81'
p214
S'7047'
p215
tp216
a(S'49*44'
p217
S'2156'
p218
tp219
a(S'43*66'
p220
S'2838'
p221
tp222
a(S'70*17'
p223
S'1190'
p224
tp225
a(S'62*30'
p226
S'1860'
p227
tp228
a(S'72*55'
p229
S'3960'
p230
tp231
a(S'83*78'
p232
S'6474'
p233
tp234
a(S'15*31'
p235
S'465'
p236
tp237
a(S'11*11'
p238
S'121'
p239
tp240
a(S'19*58'
p241
S'1102'
p242
tp243
a(S'83*28'
p244
S'2324'
p245
tp246
a(S'55*97'
p247
S'5335'
p248
tp249
a(S'9*39'
p250
S'351'
p251
tp252
a(S'4*23'
p253
S'92'
p254
tp255
a(S'4*29'
p256
S'116'
p257
tp258
a(S'29*40'
p259
S'1160'
p260
tp261
a(S'9*72'
p262
S'648'
p263
tp264
a(S'70*3'
p265
S'210'
p266
tp267
a(S'65*40'
p268
S'2600'
p269
tp270
a(S'14*66'
p271
S'924'
p272
tp273
a(S'41*74'
p274
S'3034'
p275
tp276
a(S'25*76'
p277
S'1900'
p278
tp279
a(S'83*68'
p280
S'5644'
p281
tp282
a(S'59*85'
p283
S'5015'
p284
tp285
a(S'49*37'
p286
S'1813'
p287
tp288
a(S'79*19'
p289
S'1501'
p290
tp291
a(S'28*32'
p292
S'896'
p293
tp294
a(S'56*3'
p295
S'168'
p296
tp297
a(S'72*58'
p298
S'4176'
p299
tp300
a(S'68*75'
p301
S'5100'
p302
tp303
a(S'10*30'
p304
S'300'
p305
tp306
a(S'45*60'
p307
S'2700'
p308
tp309
a(S'48*76'
p310
S'3648'
p311
tp312
a(S'53*16'
p313
S'848'
p314
tp315
a(S'16*30'
p316
S'480'
p317
tp318
a(S'56*1'
p319
S'56'
p320
tp321
a(S'37*91'
p322
S'3367'
p323
tp324
a(S'8*40'
p325
S'320'
p326
tp327
a(S'24*52'
p328
S'1248'
p329
tp330
a(S'41*27'
p331
S'1107'
p332
tp333
a(S'19*66'
p334
S'1254'
p335
tp336
a(S'28*58'
p337
S'1624'
p338
tp339
a(S'13*27'
p340
S'351'
p341
tp342
a(S'93*32'
p343
S'2976'
p344
tp345
a(S'39*19'
p346
S'741'
p347
tp348
a(S'44*40'
p349
S'1760'
p350
tp351
a(S'72*58'
p352
S'4176'
p353
tp354
a(S'98*16'
p355
S'1568'
p356
tp357
a(S'94*86'
p358
S'8084'
p359
tp360
a(S'75*41'
p361
S'3075'
p362
tp363
a(S'18*83'
p364
S'1494'
p365
tp366
a(S'88*91'
p367
S'8008'
p368
tp369
a(S'41*40'
p370
S'1640'
p371
tp372
a(S'41*86'
p373
S'3526'
p374
tp375
a(S'89*73'
p376
S'6497'
p377
tp378
a(S'32*87'
p379
S'2784'
p380
tp381
a(S'37*87'
p382
S'3219'
p383
tp384
a(S'91*54'
p385
S'4914'
p386
tp387
a(S'22*98'
p388
S'2156'
p389
tp390
a(S'76*90'
p391
S'6840'
p392
tp393
a(S'8*75'
p394
S'600'
p395
tp396
a(S'4*13'
p397
S'52'
p398
tp399
a(S'10*77'
p400
S'770'
p401
tp402
a(S'48*18'
p403
S'864'
p404
tp405
a(S'95*3'
p406
S'285'
p407
tp408
a(S'50*73'
p409
S'3650'
p410
tp411
a(S'72*97'
p412
S'6984'
p413
tp414
a(S'21*52'
p415
S'1092'
p416
tp417
a(S'0*33'
p418
g209
tp419
a(S'69*51'
p420
S'3519'
p421
tp422
a(S'22*32'
p423
S'704'
p424
tp425
a(S'77*18'
p426
S'1386'
p427
tp428
a(S'10*56'
p429
S'560'
p430
tp431
a(S'31*21'
p432
S'651'
p433
tp434
a(S'25*63'
p435
S'1575'
p436
tp437
a(S'6*66'
p438
S'396'
p439
tp440
a(S'61*7'
p441
S'427'
p442
tp443
a(S'23*67'
p444
S'1541'
p445
tp446
a(S'93*65'
p447
S'6045'
p448
tp449
a(S'17*95'
p450
S'1615'
p451
tp452
a(S'58*12'
p453
S'696'
p454
tp455
a(S'48*80'
p456
S'3840'
p457
tp458
a(S'15*88'
p459
S'1320'
p460
tp461
a(S'55*67'
p462
S'3685'
p463
tp464
a(S'21*65'
p465
S'1365'
p466
tp467
a(S'17*82'
p468
S'1394'
p469
tp470
a(S'42*33'
p471
S'1386'
p472
tp473
a(S'91*47'
p474
S'4277'
p475
tp476
a(S'15*35'
p477
S'525'
p478
tp479
a(S'32*9'
p480
S'288'
p481
tp482
a(S'65*19'
p483
S'1235'
p484
tp485
a(S'81*19'
p486
S'1539'
p487
tp488
a(S'3*63'
p489
S'189'
p490
tp491
a(S'50*33'
p492
S'1650'
p493
tp494
a(S'10*23'
p495
S'230'
p496
tp497
a(S'61*71'
p498
S'4331'
p499
tp500
a(S'46*87'
p501
S'4002'
p502
tp503
a(S'61*68'
p504
S'4148'
p505
tp506
a(S'94*12'
p507
S'1128'
p508
tp509
a(S'61*38'
p510
S'2318'
p511
tp512
a(S'72*52'
p513
S'3744'
p514
tp515
a(S'13*93'
p516
S'1209'
p517
tp518
a(S'49*13'
p519
S'637'
p520
tp521
a(S'40*30'
p522
S'1200'
p523
tp524
a(S'20*78'
p525
S'1560'
p526
tp527
a(S'62*66'
p528
S'4092'
p529
tp530
a(S'42*98'
p531
S'4116'
p532
tp533
a(S'85*92'
p534
S'7820'
p535
tp536
a(S'24*88'
p537
S'2112'
p538
tp539
a(S'24*13'
p540
S'312'
p541
tp542
a(S'44*56'
p543
S'2464'
p544
tp545
a(S'5*79'
p546
S'395'
p547
tp548
a(S'1*3'
p549
S'3'
p550
tp551
a(S'57*77'
p552
S'4389'
p553
tp554
a(S'0*19'
p555
g209
tp556
a(S'59*32'
p557
S'1888'
p558
tp559
a(S'73*13'
p560
S'949'
p561
tp562
a(S'61*70'
p563
S'4270'
p564
tp565
a(S'92*55'
p566
S'5060'
p567
tp568
a(S'25*40'
p569
S'1000'
p570
tp571
a(S'3*84'
p572
S'252'
p573
tp574
a(S'61*49'
p575
S'2989'
p576
tp577
a(S'43*80'
p578
S'3440'
p579
tp580
a(S'68*2'
p581
S'136'
p582
tp583
a(S'92*83'
p584
S'7636'
p585
tp586
a(S'36*97'
p587
S'3492'
p588
tp589
a(S'12*15'
p590
S'180'
p591
tp592
a(S'14*51'
p593
S'714'
p594
tp595
a(S'47*57'
p596
S'2679'
p597
tp598
a(S'91*59'
p599
S'5369'
p600
tp601
a(S'59*90'
p602
S'5310'
p603
tp604
a(S'41*92'
p605
S'3772'
p606
tp607
a(S'96*65'
p608
S'6240'
p609
tp610
a(S'42*29'
p611
S'1218'
p612
tp613
a(S'76*62'
p614
S'4712'
p615
tp616
a(S'57*2'
p617
S'114'
p618
tp619
a(S'71*55'
p620
S'3905'
p621
tp622
a(S'21*48'
p623
S'1008'
p624
tp625
a(S'41*79'
p626
S'3239'
p627
tp628
a(S'12*21'
p629
S'252'
p630
tp631
a(S'16*93'
p632
S'1488'
p633
tp634
a(S'82*14'
p635
S'1148'
p636
tp637
a(S'11*76'
p638
S'836'
p639
tp640
a(S'67*42'
p641
S'2814'
p642
tp643
a(S'99*20'
p644
S'1980'
p645
tp646
a(S'73*59'
p647
S'4307'
p648
tp649
a(S'79*14'
p650
S'1106'
p651
tp652
a(S'38*71'
p653
S'2698'
p654
tp655
a(S'1*79'
p656
S'79'
p657
tp658
a(S'36*24'
p659
S'864'
p660
tp661
a(S'68*20'
p662
S'1360'
p663
tp664
a(S'69*96'
p665
S'6624'
p666
tp667
a(S'68*76'
p668
S'5168'
p669
tp670
a(S'6*86'
p671
S'516'
p672
tp673
a(S'76*79'
p674
S'6004'
p675
tp676
a(S'1*90'
p677
S'90'
p678
tp679
a(S'51*84'
p680
S'4284'
p681
tp682
a(S'77*6'
p683
S'462'
p684
tp685
a(S'8*61'
p686
S'488'
p687
tp688
a(S'1*35'
p689
S'35'
p690
tp691
a(S'5*69'
p692
S'345'
p693
tp694
a(S'67*43'
p695
S'2881'
p696
tp697
a(S'36*7'
p698
S'252'
p699
tp700
a(S'70*67'
p701
S'4690'
p702
tp703
a(S'45*71'
p704
S'3195'
p705
tp706
a(S'62*1'
p707
S'62'
p708
tp709
a(S'85*83'
p710
S'7055'
p711
tp712
a(S'81*96'
p713
S'7776'
p714
tp715
a(S'52*72'
p716
S'3744'
p717
tp718
a(S'8*47'
p719
S'376'
p720
tp721
a(S'47*79'
p722
S'3713'
p723
tp724
a(S'14*35'
p725
S'490'
p726
tp727
a(S'46*78'
p728
S'3588'
p729
tp730
a(S'15*16'
p731
S'240'
p732
tp733
a(S'14*99'
p734
S'1386'
p735
tp736
a(S'54*32'
p737
S'1728'
p738
tp739
a(S'30*0'
p740
g209
tp741
a(S'54*19'
p742
S'1026'
p743
tp744
a(S'16*19'
p745
S'304'
p746
tp747
a(S'98*62'
p748
S'6076'
p749
tp750
a(S'95*42'
p751
S'3990'
p752
tp753
a(S'6*74'
p754
S'444'
p755
tp756
a(S'19*90'
p757
S'1710'
p758
tp759
a(S'68*51'
p760
S'3468'
p761
tp762
a(S'20*5'
p763
S'100'
p764
tp765
a(S'5*66'
p766
S'330'
p767
tp768
a(S'65*72'
p769
S'4680'
p770
tp771
a(S'23*23'
p772
S'529'
p773
tp774
a(S'94*29'
p775
S'2726'
p776
tp777
a(S'66*54'
p778
S'3564'
p779
tp780
a(S'3*19'
p781
S'57'
p782
tp783
a(S'45*8'
p784
S'360'
p785
tp786
a(S'83*39'
p787
S'3237'
p788
tp789
a(S'30*87'
p790
S'2610'
p791
tp792
a(S'81*79'
p793
S'6399'
p794
tp795
a(S'65*15'
p796
S'975'
p797
tp798
a(S'7*17'
p799
S'119'
p800
tp801
a(S'19*61'
p802
S'1159'
p803
tp804
a(S'36*35'
p805
S'1260'
p806
tp807
a(S'38*88'
p808
S'3344'
p809
tp810
a(S'39*60'
p811
S'2340'
p812
tp813
a(S'65*83'
p814
S'5395'
p815
tp816
a(S'72*12'
p817
S'864'
p818
tp819
a(S'24*13'
p820
S'312'
p821
tp822
a(S'13*62'
p823
S'806'
p824
tp825
a(S'47*20'
p826
S'940'
p827
tp828
a(S'12*24'
p829
S'288'
p830
tp831
a(S'47*16'
p832
S'752'
p833
tp834
a(S'7*26'
p835
S'182'
p836
tp837
a(S'72*87'
p838
S'6264'
p839
tp840
a(S'29*73'
p841
S'2117'
p842
tp843
a(S'87*54'
p844
S'4698'
p845
tp846
a(S'89*86'
p847
S'7654'
p848
tp849
a(S'5*21'
p850
S'105'
p851
tp852
a(S'9*26'
p853
S'234'
p854
tp855
a(S'53*27'
p856
S'1431'
p857
tp858
a(S'27*3'
p859
S'81'
p860
tp861
a(S'2*88'
p862
S'176'
p863
tp864
a(S'80*34'
p865
S'2720'
p866
tp867
a(S'75*27'
p868
S'2025'
p869
tp870
a(S'51*92'
p871
S'4692'
p872
tp873
a(S'3*63'
p874
S'189'
p875
tp876
a(S'46*37'
p877
S'1702'
p878
tp879
a(S'90*16'
p880
S'1440'
p881
tp882
a(S'11*66'
p883
S'726'
p884
tp885
a(S'21*89'
p886
S'1869'
p887
tp888
a(S'87*44'
p889
S'3828'
p890
tp891
a(S'27*75'
p892
S'2025'
p893
tp894
a(S'86*0'
p895
g209
tp896
a(S'21*55'
p897
S'1155'
p898
tp899
a(S'75*20'
p900
S'1500'
p901
tp902
a(S'18*69'
p903
S'1242'
p904
tp905
a(S'53*28'
p906
S'1484'
p907
tp908
a(S'34*55'
p909
S'1870'
p910
tp911
a(S'34*89'
p912
S'3026'
p913
tp914
a(S'92*40'
p915
S'3680'
p916
tp917
a(S'21*19'
p918
S'399'
p919
tp920
a(S'12*92'
p921
S'1104'
p922
tp923
a(S'96*12'
p924
S'1152'
p925
tp926
a(S'38*62'
p927
S'2356'
p928
tp929
a(S'34*5'
p930
S'170'
p931
tp932
a(S'97*9'
p933
S'873'
p934
tp935
a(S'94*63'
p936
S'5922'
p937
tp938
a(S'14*89'
p939
S'1246'
p940
tp941
a(S'60*90'
p942
S'5400'
p943
tp944
a(S'45*66'
p945
S'2970'
p946
tp947
a(S'11*57'
p948
S'627'
p949
tp950
a(S'23*1'
p951
S'23'
p952
tp953
a(S'70*5'
p954
S'350'
p955
tp956
a(S'62*51'
p957
S'3162'
p958
tp959
a(S'21*84'
p960
S'1764'
p961
tp962
a(S'11*20'
p963
S'220'
p964
tp965
a(S'66*81'
p966
S'5346'
p967
tp968
a(S'57*74'
p969
S'4218'
p970
tp971
a(S'83*43'
p972
S'3569'
p973
tp974
a(S'29*75'
p975
S'2175'
p976
tp977
a(S'15*77'
p978
S'1155'
p979
tp980
a(S'59*3'
p981
S'177'
p982
tp983
a(S'41*53'
p984
S'2173'
p985
tp986
a(S'73*89'
p987
S'6497'
p988
tp989
a(S'63*77'
p990
S'4851'
p991
tp992
a(S'71*84'
p993
S'5964'
p994
tp995
a(S'86*81'
p996
S'6966'
p997
tp998
a(S'87*89'
p999
S'7743'
p1000
tp1001
a(S'1*77'
p1002
S'77'
p1003
tp1004
a(S'22*5'
p1005
S'110'
p1006
tp1007
a(S'26*29'
p1008
S'754'
p1009
tp1010
a(S'15*71'
p1011
S'1065'
p1012
tp1013
a(S'17*42'
p1014
S'714'
p1015
tp1016
a(S'82*26'
p1017
S'2132'
p1018
tp1019
a(S'60*96'
p1020
S'5760'
p1021
tp1022
a(S'72*57'
p1023
S'4104'
p1024
tp1025
a(S'88*85'
p1026
S'7480'
p1027
tp1028
a(S'60*22'
p1029
S'1320'
p1030
tp1031
a(S'38*93'
p1032
S'3534'
p1033
tp1034
a(S'29*68'
p1035
S'1972'
p1036
tp1037
a(S'96*37'
p1038
S'3552'
p1039
tp1040
a(S'29*41'
p1041
S'1189'
p1042
tp1043
a(S'48*10'
p1044
S'480'
p1045
tp1046
a(S'37*34'
p1047
S'1258'
p1048
tp1049
a(S'49*61'
p1050
S'2989'
p1051
tp1052
a(S'45*86'
p1053
S'3870'
p1054
tp1055
a(S'41*28'
p1056
S'1148'
p1057
tp1058
a(S'50*51'
p1059
S'2550'
p1060
tp1061
a(S'69*96'
p1062
S'6624'
p1063
tp1064
a(S'45*75'
p1065
S'3375'
p1066
tp1067
a(S'8*95'
p1068
S'760'
p1069
tp1070
a(S'37*5'
p1071
S'185'
p1072
tp1073
a(S'12*27'
p1074
S'324'
p1075
tp1076
a(S'19*29'
p1077
S'551'
p1078
tp1079
a(S'13*6'
p1080
S'78'
p1081
tp1082
a(S'63*42'
p1083
S'2646'
p1084
tp1085
a(S'65*98'
p1086
S'6370'
p1087
tp1088
a(S'15*7'
p1089
S'105'
p1090
tp1091
a(S'17*86'
p1092
S'1462'
p1093
tp1094
a(S'73*18'
p1095
S'1314'
p1096
tp1097
a(S'36*77'
p1098
S'2772'
p1099
tp1100
a(S'35*32'
p1101
S'1120'
p1102
tp1103
a(S'70*22'
p1104
S'1540'
p1105
tp1106
a(S'98*61'
p1107
S'5978'
p1108
tp1109
a(S'0*73'
p1110
g209
tp1111
a(S'94*53'
p1112
S'4982'
p1113
tp1114
a(S'49*70'
p1115
S'3430'
p1116
tp1117
a(S'77*98'
p1118
S'7546'
p1119
tp1120
a(S'73*73'
p1121
S'5329'
p1122
tp1123
a(S'70*10'
p1124
S'700'
p1125
tp1126
a(S'92*33'
p1127
S'3036'
p1128
tp1129
a(S'21*48'
p1130
S'1008'
p1131
tp1132
a(S'71*14'
p1133
S'994'
p1134
tp1135
a(S'70*59'
p1136
S'4130'
p1137
tp1138
a(S'90*50'
p1139
S'4500'
p1140
tp1141
a(S'14*4'
p1142
S'56'
p1143
tp1144
a(S'54*80'
p1145
S'4320'
p1146
tp1147
a(S'61*88'
p1148
S'5368'
p1149
tp1150
a(S'47*57'
p1151
S'2679'
p1152
tp1153
a(S'12*78'
p1154
S'936'
p1155
tp1156
a(S'6*75'
p1157
S'450'
p1158
tp1159
a(S'52*86'
p1160
S'4472'
p1161
tp1162
a(S'81*98'
p1163
S'7938'
p1164
tp1165
a(S'88*98'
p1166
S'8624'
p1167
tp1168
a(S'12*71'
p1169
S'852'
p1170
tp1171
a(S'53*51'
p1172
S'2703'
p1173
tp1174
a(S'42*66'
p1175
S'2772'
p1176
tp1177
a(S'33*72'
p1178
S'2376'
p1179
tp1180
a(S'94*13'
p1181
S'1222'
p1182
tp1183
a(S'21*99'
p1184
S'2079'
p1185
tp1186
a(S'94*69'
p1187
S'6486'
p1188
tp1189
a(S'54*5'
p1190
S'270'
p1191
tp1192
a(S'87*67'
p1193
S'5829'
p1194
tp1195
a(S'31*8'
p1196
S'248'
p1197
tp1198
a(S'30*97'
p1199
S'2910'
p1200
tp1201
a(S'41*85'
p1202
S'3485'
p1203
tp1204
a(S'68*59'
p1205
S'4012'
p1206
tp1207
a(S'42*33'
p1208
S'1386'
p1209
tp1210
a(S'29*15'
p1211
S'435'
p1212
tp1213
a(S'51*16'
p1214
S'816'
p1215
tp1216
a(S'19*43'
p1217
S'817'
p1218
tp1219
a(S'91*24'
p1220
S'2184'
p1221
tp1222
a(S'21*48'
p1223
S'1008'
p1224
tp1225
a(S'98*83'
p1226
S'8134'
p1227
tp1228
a(S'87*62'
p1229
S'5394'
p1230
tp1231
a(S'22*95'
p1232
S'2090'
p1233
tp1234
a(S'64*9'
p1235
S'576'
p1236
tp1237
a(S'30*54'
p1238
S'1620'
p1239
tp1240
a(S'40*9'
p1241
S'360'
p1242
tp1243
a(S'59*23'
p1244
S'1357'
p1245
tp1246
a(S'83*27'
p1247
S'2241'
p1248
tp1249
a(S'52*41'
p1250
S'2132'
p1251
tp1252
a(S'91*66'
p1253
S'6006'
p1254
tp1255
a(S'2*5'
p1256
S'10'
p1257
tp1258
a(S'3*14'
p1259
S'42'
p1260
tp1261
a(S'83*29'
p1262
S'2407'
p1263
tp1264
a(S'43*54'
p1265
S'2322'
p1266
tp1267
a(S'3*42'
p1268
S'126'
p1269
tp1270
a(S'57*6'
p1271
S'342'
p1272
tp1273
a(S'52*98'
p1274
S'5096'
p1275
tp1276
a(S'83*22'
p1277
S'1826'
p1278
tp1279
a(S'29*19'
p1280
S'551'
p1281
tp1282
a(S'87*25'
p1283
S'2175'
p1284
tp1285
a(S'57*10'
p1286
S'570'
p1287
tp1288
a(S'51*46'
p1289
S'2346'
p1290
tp1291
a(S'41*60'
p1292
S'2460'
p1293
tp1294
a(S'28*9'
p1295
S'252'
p1296
tp1297
a(S'65*40'
p1298
S'2600'
p1299
tp1300
a(S'11*73'
p1301
S'803'
p1302
tp1303
a(S'29*47'
p1304
S'1363'
p1305
tp1306
a(S'16*74'
p1307
S'1184'
p1308
tp1309
a(S'64*16'
p1310
S'1024'
p1311
tp1312
a(S'55*82'
p1313
S'4510'
p1314
tp1315
a(S'82*56'
p1316
S'4592'
p1317
tp1318
a(S'69*39'
p1319
S'2691'
p1320
tp1321
a(S'16*24'
p1322
S'384'
p1323
tp1324
a(S'34*94'
p1325
S'3196'
p1326
tp1327
a(S'77*39'
p1328
S'3003'
p1329
tp1330
a(S'10*9'
p1331
S'90'
p1332
tp1333
a(S'56*14'
p1334
S'784'
p1335
tp1336
a(S'11*48'
p1337
S'528'
p1338
tp1339
a(S'18*90'
p1340
S'1620'
p1341
tp1342
a(S'34*52'
p1343
S'1768'
p1344
tp1345
a(S'89*51'
p1346
S'4539'
p1347
tp1348
a(S'50*30'
p1349
S'1500'
p1350
tp1351
a(S'91*7'
p1352
S'637'
p1353
tp1354
a(S'26*60'
p1355
S'1560'
p1356
tp1357
a(S'34*30'
p1358
S'1020'
p1359
tp1360
a(S'8*26'
p1361
S'208'
p1362
tp1363
a(S'21*21'
p1364
S'441'
p1365
tp1366
a(S'40*28'
p1367
S'1120'
p1368
tp1369
a(S'99*84'
p1370
S'8316'
p1371
tp1372
a(S'50*65'
p1373
S'3250'
p1374
tp1375
a(S'86*51'
p1376
S'4386'
p1377
tp1378
a(S'75*90'
p1379
S'6750'
p1380
tp1381
a(S'52*18'
p1382
S'936'
p1383
tp1384
a(S'11*97'
p1385
S'1067'
p1386
tp1387
a(S'30*66'
p1388
S'1980'
p1389
tp1390
a(S'91*80'
p1391
S'7280'
p1392
tp1393
a(S'93*8'
p1394
S'744'
p1395
tp1396
a(S'29*24'
p1397
S'696'
p1398
tp1399
a(S'51*56'
p1400
S'2856'
p1401
tp1402
a(S'82*62'
p1403
S'5084'
p1404
tp1405
a(S'83*36'
p1406
S'2988'
p1407
tp1408
a(S'58*54'
p1409
S'3132'
p1410
tp1411
a(S'47*67'
p1412
S'3149'
p1413
tp1414
a(S'48*20'
p1415
S'960'
p1416
tp1417
a(S'88*78'
p1418
S'6864'
p1419
tp1420
a(S'93*13'
p1421
S'1209'
p1422
tp1423
a(S'18*73'
p1424
S'1314'
p1425
tp1426
a(S'90*65'
p1427
S'5850'
p1428
tp1429
a(S'32*22'
p1430
S'704'
p1431
tp1432
a(S'88*9'
p1433
S'792'
p1434
tp1435
a(S'13*16'
p1436
S'208'
p1437
tp1438
a(S'38*26'
p1439
S'988'
p1440
tp1441
a(S'25*83'
p1442
S'2075'
p1443
tp1444
a(S'88*89'
p1445
S'7832'
p1446
tp1447
a(S'97*93'
p1448
S'9021'
p1449
tp1450
a(S'22*28'
p1451
S'616'
p1452
tp1453
a(S'74*48'
p1454
S'3552'
p1455
tp1456
a(S'33*46'
p1457
S'1518'
p1458
tp1459
a(S'99*21'
p1460
S'2079'
p1461
tp1462
a(S'13*55'
p1463
S'715'
p1464
tp1465
a(S'29*39'
p1466
S'1131'
p1467
tp1468
a(S'16*57'
p1469
S'912'
p1470
tp1471
a(S'99*53'
p1472
S'5247'
p1473
tp1474
a(S'47*9'
p1475
S'423'
p1476
tp1477
a(S'60*0'
p1478
g209
tp1479
a(S'53*65'
p1480
S'3445'
p1481
tp1482
a(S'50*34'
p1483
S'1700'
p1484
tp1485
a(S'96*55'
p1486
S'5280'
p1487
tp1488
a(S'70*92'
p1489
S'6440'
p1490
tp1491
a(S'9*17'
p1492
S'153'
p1493
tp1494
a.