(lp0
(S'972-683'
p1
S'289'
p2
tp3
a(S'325-977'
p4
S'-652'
p5
tp6
a(S'468-168'
p7
S'300'
p8
tp9
a(S'542-916'
p10
S'-374'
p11
tp12
a(S'714-473'
p13
S'241'
p14
tp15
a(S'551-230'
p16
S'321'
p17
tp18
a(S'523-202'
p19
S'321'
p20
tp21
a(S'742-497'
p22
S'245'
p23
tp24
a(S'863-348'
p25
S'515'
p26
tp27
a(S'949-312'
p28
S'637'
p29
tp30
a(S'200-986'
p31
S'-786'
p32
tp33
a(S'109-941'
p34
S'-832'
p35
tp36
a(S'697-108'
p37
S'589'
p38
tp39
a(S'194-914'
p40
S'-720'
p41
tp42
a(S'822-808'
p43
S'14'
p44
tp45
a(S'239-694'
p46
S'-455'
p47
tp48
a(S'832-327'
p49
S'505'
p50
tp51
a(S'502-747'
p52
S'-245'
p53
tp54
a(S'679-247'
p55
S'432'
p56
tp57
a(S'806-577'
p58
S'229'
p59
tp60
a(S'36-839'
p61
S'-803'
p62
tp63
a(S'527-742'
p64
S'-215'
p65
tp66
a(S'750-815'
p67
S'-65'
p68
tp69
a(S'530-744'
p70
S'-214'
p71
tp72
a(S'526-701'
p73
S'-175'
p74
tp75
a(S'431-581'
p76
S'-150'
p77
tp78
a(S'256-328'
p79
S'-72'
p80
tp81
a(S'842-426'
p82
S'416'
p83
tp84
a(S'502-834'
p85
S'-332'
p86
tp87
a(S'825-83'
p88
S'742'
p89
tp90
a(S'55-800'
p91
S'-745'
p92
tp93
a(S'430-526'
p94
S'-96'
p95
tp96
a(S'483-768'
p97
S'-285'
p98
tp99
a(S'145-436'
p100
S'-291'
p101
tp102
a(S'384-440'
p103
S'-56'
p104
tp105
a(S'948-475'
p106
S'473'
p107
tp108
a(S'550-100'
p109
S'450'
p110
tp111
a(S'903-338'
p112
S'565'
p113
tp114
a(S'210-561'
p115
S'-351'
p116
tp117
a(S'145-858'
p118
S'-713'
p119
tp120
a(S'601-335'
p121
S'266'
p122
tp123
a(S'611-954'
p124
S'-343'
p125
tp126
a(S'766-398'
p127
S'368'
p128
tp129
a(S'743-68'
p130
S'675'
p131
tp132
a(S'805-500'
p133
S'305'
p134
tp135
a(S'28-514'
p136
S'-486'
p137
tp138
a(S'451-472'
p139
S'-21'
p140
tp141
a(S'313-147'
p142
S'166'
p143
tp144
a(S'346-220'
p145
S'126'
p146
tp147
a(S'70-511'
p148
S'-441'
p149
tp150
a(S'378-97'
p151
S'281'
p152
tp153
a(S'954-285'
p154
S'669'
p155
tp156
a(S'541-726'
p157
S'-185'
p158
tp159
a(S'891-883'
p160
S'8'
p161
tp162
a(S'879-661'
p163
S'218'
p164
tp165
a(S'851-966'
p166
S'-115'
p167
tp168
a(S'285-843'
p169
S'-558'
p170
tp171
a(S'385-524'
p172
S'-139'
p173
tp174
a(S'567-783'
p175
S'-216'
p176
tp177
a(S'101-698'
p178
S'-597'
p179
tp180
a(S'268-413'
p181
S'-145'
p182
tp183
a(S'251-884'
p184
S'-633'
p185
tp186
a(S'126-643'
p187
S'-517'
p188
tp189
a(S'277-763'
p190
S'-486'
p191
tp192
a(S'558-675'
p193
S'-117'
p194
tp195
a(S'53-639'
p196
S'-586'
p197
tp198
a(S'410-334'
p199
S'76'
p200
tp201
a(S'196-747'
p202
S'-551'
p203
tp204
a(S'101-800'
p205
S'-699'
p206
tp207
a(S'530-695'
p208
S'-165'
p209
tp210
a(S'378-596'
p211
S'-218'
p212
tp213
a(S'647-560'
p214
S'87'
p215
tp216
a(S'450-164'
p217
S'286'
p218
tp219
a(S'580-49'
p220
S'531'
p221
tp222
a(S'316-792'
p223
S'-476'
p224
tp225
a(S'648-296'
p226
S'352'
p227
tp228
a(S'528-560'
p229
S'-32'
p230
tp231
a(S'135-176'
p232
S'-41'
p233
tp234
a(S'995-23'
p235
S'972'
p236
tp237
a(S'259-516'
p238
S'-257'
p239
tp240
a(S'848-200'
p241
S'648'
p242
tp243
a(S'174-399'
p244
S'-225'
p245
tp246
a(S'512-807'
p247
S'-295'
p248
tp249
a(S'933-130'
p250
S'803'
p251
tp252
a(S'224-940'
p253
S'-716'
p254
tp255
a(S'704-438'
p256
S'266'
p257
tp258
a(S'767-329'
p259
S'438'
p260
tp261
a(S'952-665'
p262
S'287'
p263
tp264
a(S'656-567'
p265
S'89'
p266
tp267
a(S'310-952'
p268
S'-642'
p269
tp270
a(S'51-806'
p271
S'-755'
p272
tp273
a(S'204-87'
p274
S'117'
p275
tp276
a(S'231-680'
p277
S'-449'
p278
tp279
a(S'214-125'
p280
S'89'
p281
tp282
a(S'573-889'
p283
S'-316'
p284
tp285
a(S'854-880'
p286
S'-26'
p287
tp288
a(S'992-367'
p289
S'625'
p290
tp291
a(S'666-861'
p292
S'-195'
p293
tp294
a(S'718-144'
p295
S'574'
p296
tp297
a(S'860-597'
p298
S'263'
p299
tp300
a(S'913-936'
p301
S'-23'
p302
tp303
a(S'59-93'
p304
S'-34'
p305
tp306
a(S'279-331'
p307
S'-52'
p308
tp309
a(S'468-208'
p310
S'260'
p311
tp312
a(S'673-240'
p313
S'433'
p314
tp315
a(S'978-657'
p316
S'321'
p317
tp318
a(S'921-172'
p319
S'749'
p320
tp321
a(S'968-174'
p322
S'794'
p323
tp324
a(S'598-653'
p325
S'-55'
p326
tp327
a(S'817-589'
p328
S'228'
p329
tp330
a(S'151-592'
p331
S'-441'
p332
tp333
a(S'843-455'
p334
S'388'
p335
tp336
a(S'797-125'
p337
S'672'
p338
tp339
a(S'140-427'
p340
S'-287'
p341
tp342
a(S'527-767'
p343
S'-240'
p344
tp345
a(S'792-708'
p346
S'84'
p347
tp348
a(S'826-731'
p349
S'95'
p350
tp351
a(S'630-559'
p352
S'71'
p353
tp354
a(S'488-155'
p355
S'333'
p356
tp357
a(S'372-262'
p358
S'110'
p359
tp360
a(S'160-513'
p361
S'-353'
p362
tp363
a(S'460-21'
p364
S'439'
p365
tp366
a(S'889-446'
p367
S'443'
p368
tp369
a(S'877-344'
p370
S'533'
p371
tp372
a(S'564-614'
p373
S'-50'
p374
tp375
a(S'666-46'
p376
S'620'
p377
tp378
a(S'758-825'
p379
S'-67'
p380
tp381
a(S'636-677'
p382
S'-41'
p383
tp384
a(S'230-264'
p385
S'-34'
p386
tp387
a(S'680-446'
p388
S'234'
p389
tp390
a(S'274-399'
p391
S'-125'
p392
tp393
a(S'85-95'
p394
S'-10'
p395
tp396
a(S'318-101'
p397
S'217'
p398
tp399
a(S'871-830'
p400
S'41'
p401
tp402
a(S'504-70'
p403
S'434'
p404
tp405
a(S'472-439'
p406
S'33'
p407
tp408
a(S'850-953'
p409
S'-103'
p410
tp411
a(S'211-236'
p412
S'-25'
p413
tp414
a(S'223-641'
p415
S'-418'
p416
tp417
a(S'563-424'
p418
S'139'
p419
tp420
a(S'618-240'
p421
S'378'
p422
tp423
a(S'355-990'
p424
S'-635'
p425
tp426
a(S'937-302'
p427
S'635'
p428
tp429
a(S'688-571'
p430
S'117'
p431
tp432
a(S'544-527'
p433
S'17'
p434
tp435
a(S'793-653'
p436
S'140'
p437
tp438
a(S'871-55'
p439
S'816'
p440
tp441
a(S'391-564'
p442
S'-173'
p443
tp444
a(S'81-159'
p445
S'-78'
p446
tp447
a(S'107-645'
p448
S'-538'
p449
tp450
a(S'403-854'
p451
S'-451'
p452
tp453
a(S'765-692'
p454
S'73'
p455
tp456
a(S'813-33'
p457
S'780'
p458
tp459
a(S'710-542'
p460
S'168'
p461
tp462
a(S'904-678'
p463
S'226'
p464
tp465
a(S'93-678'
p466
S'-585'
p467
tp468
a(S'489-807'
p469
S'-318'
p470
tp471
a(S'366-945'
p472
S'-579'
p473
tp474
a(S'394-761'
p475
S'-367'
p476
tp477
a(S'935-697'
p478
S'238'
p479
tp480
a(S'208-455'
p481
S'-247'
p482
tp483
a(S'341-880'
p484
S'-539'
p485
tp486
a(S'658-378'
p487
S'280'
p488
tp489
a(S'485-423'
p490
S'62'
p491
tp492
a(S'482-783'
p493
S'-301'
p494
tp495
a(S'869-899'
p496
S'-30'
p497
tp498
a(S'740-663'
p499
S'77'
p500
tp501
a(S'887-952'
p502
S'-65'
p503
tp504
a(S'747-375'
p505
S'372'
p506
tp507
a(S'88-81'
p508
S'7'
p509
tp510
a(S'564-63'
p511
S'501'
p512
tp513
a(S'921-78'
p514
S'843'
p515
tp516
a(S'593-737'
p517
S'-144'
p518
tp519
a(S'19-348'
p520
S'-329'
p521
tp522
a(S'305-6'
p523
S'299'
p524
tp525
a(S'641-816'
p526
S'-175'
p527
tp528
a(S'688-24'
p529
S'664'
p530
tp531
a(S'298-116'
p532
S'182'
p533
tp534
a(S'151-278'
p535
S'-127'
p536
tp537
a(S'210-696'
p538
S'-486'
p539
tp540
a(S'319-26'
p541
S'293'
p542
tp543
a(S'631-302'
p544
S'329'
p545
tp546
a(S'901-24'
p547
S'877'
p548
tp549
a(S'88-511'
p550
S'-423'
p551
tp552
a(S'108-338'
p553
S'-230'
p554
tp555
a(S'847-395'
p556
S'452'
p557
tp558
a(S'304-791'
p559
S'-487'
p560
tp561
a(S'335-243'
p562
S'92'
p563
tp564
a(S'443-854'
p565
S'-411'
p566
tp567
a(S'825-516'
p568
S'309'
p569
tp570
a(S'777-741'
p571
S'36'
p572
tp573
a(S'847-159'
p574
S'688'
p575
tp576
a(S'606-824'
p577
S'-218'
p578
tp579
a(S'313-247'
p580
S'66'
p581
tp582
a(S'985-19'
p583
S'966'
p584
tp585
a(S'551-101'
p586
S'450'
p587
tp588
a(S'629-729'
p589
S'-100'
p590
tp591
a(S'839-673'
p592
S'166'
p593
tp594
a(S'858-633'
p595
S'225'
p596
tp597
a(S'914-880'
p598
S'34'
p599
tp600
a(S'124-242'
p601
S'-118'
p602
tp603
a(S'254-709'
p604
S'-455'
p605
tp606
a(S'655-936'
p607
S'-281'
p608
tp609
a(S'732-376'
p610
S'356'
p611
tp612
a(S'358-413'
p613
S'-55'
p614
tp615
a(S'259-77'
p616
S'182'
p617
tp618
a(S'832-88'
p619
S'744'
p620
tp621
a(S'579-789'
p622
S'-210'
p623
tp624
a(S'931-285'
p625
S'646'
p626
tp627
a(S'374-784'
p628
S'-410'
p629
tp630
a(S'914-849'
p631
S'65'
p632
tp633
a(S'851-12'
p634
S'839'
p635
tp636
a(S'639-178'
p637
S'461'
p638
tp639
a(S'368-86'
p640
S'282'
p641
tp642
a(S'619-470'
p643
S'149'
p644
tp645
a(S'476-493'
p646
S'-17'
p647
tp648
a(S'338-577'
p649
S'-239'
p650
tp651
a(S'383-702'
p652
S'-319'
p653
tp654
a(S'39-562'
p655
S'-523'
p656
tp657
a(S'533-912'
p658
S'-379'
p659
tp660
a(S'582-313'
p661
S'269'
p662
tp663
a(S'201-201'
p664
S'0'
p665
tp666
a(S'479-663'
p667
S'-184'
p668
tp669
a(S'779-111'
p670
S'668'
p671
tp672
a(S'345-667'
p673
S'-322'
p674
tp675
a(S'476-763'
p676
S'-287'
p677
tp678
a(S'868-224'
p679
S'644'
p680
tp681
a(S'917-26'
p682
S'891'
p683
tp684
a(S'85-186'
p685
S'-101'
p686
tp687
a(S'510-572'
p688
S'-62'
p689
tp690
a(S'573-902'
p691
S'-329'
p692
tp693
a(S'636-42'
p694
S'594'
p695
tp696
a(S'273-800'
p697
S'-527'
p698
tp699
a(S'64-552'
p700
S'-488'
p701
tp702
a(S'483-385'
p703
S'98'
p704
tp705
a(S'768-885'
p706
S'-117'
p707
tp708
a(S'672-976'
p709
S'-304'
p710
tp711
a(S'216-100'
p712
S'116'
p713
tp714
a(S'189-673'
p715
S'-484'
p716
tp717
a(S'367-642'
p718
S'-275'
p719
tp720
a(S'815-68'
p721
S'747'
p722
tp723
a(S'641-362'
p724
S'279'
p725
tp726
a(S'468-849'
p727
S'-381'
p728
tp729
a(S'228-275'
p730
S'-47'
p731
tp732
a(S'85-254'
p733
S'-169'
p734
tp735
a(S'610-753'
p736
S'-143'
p737
tp738
a(S'900-409'
p739
S'491'
p740
tp741
a(S'976-674'
p742
S'302'
p743
tp744
a(S'911-834'
p745
S'77'
p746
tp747
a(S'116-364'
p748
S'-248'
p749
tp750
a(S'126-198'
p751
S'-72'
p752
tp753
a(S'80-979'
p754
S'-899'
p755
tp756
a(S'244-22'
p757
S'222'
p758
tp759
a(S'101-492'
p760
S'-391'
p761
tp762
a(S'320-182'
p763
S'138'
p764
tp765
a(S'416-307'
p766
S'109'
p767
tp768
a(S'490-615'
p769
S'-125'
p770
tp771
a(S'364-16'
p772
S'348'
p773
tp774
a(S'931-182'
p775
S'749'
p776
tp777
a(S'923-866'
p778
S'57'
p779
tp780
a(S'424-286'
p781
S'138'
p782
tp783
a(S'232-732'
p784
S'-500'
p785
tp786
a(S'485-81'
p787
S'404'
p788
tp789
a(S'111-419'
p790
S'-308'
p791
tp792
a(S'453-607'
p793
S'-154'
p794
tp795
a(S'300-534'
p796
S'-234'
p797
tp798
a(S'464-22'
p799
S'442'
p800
tp801
a(S'422-311'
p802
S'111'
p803
tp804
a(S'613-202'
p805
S'411'
p806
tp807
a(S'971-847'
p808
S'124'
p809
tp810
a(S'800-51'
p811
S'749'
p812
tp813
a(S'906-799'
p814
S'107'
p815
tp816
a(S'682-946'
p817
S'-264'
p818
tp819
a(S'110-988'
p820
S'-878'
p821
tp822
a(S'827-106'
p823
S'721'
p824
tp825
a(S'296-849'
p826
S'-553'
p827
tp828
a(S'538-620'
p829
S'-82'
p830
tp831
a(S'925-230'
p832
S'695'
p833
tp834
a(S'898-957'
p835
S'-59'
p836
tp837
a(S'858-39'
p838
S'819'
p839
tp840
a(S'955-946'
p841
S'9'
p842
tp843
a(S'747-938'
p844
S'-191'
p845
tp846
a(S'237-330'
p847
S'-93'
p848
tp849
a(S'785-247'
p850
S'538'
p851
tp852
a(S'999-595'
p853
S'404'
p854
tp855
a(S'861-436'
p856
S'425'
p857
tp858
a(S'102-197'
p859
S'-95'
p860
tp861
a(S'130-807'
p862
S'-677'
p863
tp864
a(S'410-547'
p865
S'-137'
p866
tp867
a(S'496-331'
p868
S'165'
p869
tp870
a(S'60-202'
p871
S'-142'
p872
tp873
a(S'580-392'
p874
S'188'
p875
tp876
a(S'69-49'
p877
S'20'
p878
tp879
a(S'991-924'
p880
S'67'
p881
tp882
a(S'96-208'
p883
S'-112'
p884
tp885
a(S'962-599'
p886
S'363'
p887
tp888
a(S'874-902'
p889
S'-28'
p890
tp891
a(S'573-758'
p892
S'-185'
p893
tp894
a(S'675-833'
p895
S'-158'
p896
tp897
a(S'246-95'
p898
S'151'
p899
tp900
a(S'248-329'
p901
S'-81'
p902
tp903
a(S'883-822'
p904
S'61'
p905
tp906
a(S'959-128'
p907
S'831'
p908
tp909
a(S'955-597'
p910
S'358'
p911
tp912
a(S'139-511'
p913
S'-372'
p914
tp915
a(S'680-680'
p916
g665
tp917
a(S'905-626'
p918
S'279'
p919
tp920
a(S'76-960'
p921
S'-884'
p922
tp923
a(S'242-549'
p924
S'-307'
p925
tp926
a(S'678-893'
p927
S'-215'
p928
tp929
a(S'205-415'
p930
S'-210'
p931
tp932
a(S'164-65'
p933
S'99'
p934
tp935
a(S'853-504'
p936
S'349'
p937
tp938
a(S'332-233'
p939
S'99'
p940
tp941
a(S'748-710'
p942
S'38'
p943
tp944
a(S'467-683'
p945
S'-216'
p946
tp947
a(S'3-611'
p948
S'-608'
p949
tp950
a(S'382-158'
p951
S'224'
p952
tp953
a(S'417-333'
p954
S'84'
p955
tp956
a(S'942-771'
p957
S'171'
p958
tp959
a(S'352-2'
p960
S'350'
p961
tp962
a(S'821-231'
p963
S'590'
p964
tp965
a(S'407-755'
p966
S'-348'
p967
tp968
a(S'190-527'
p969
S'-337'
p970
tp971
a(S'135-133'
p972
S'2'
p973
tp974
a(S'951-558'
p975
S'393'
p976
tp977
a(S'704-727'
p978
S'-23'
p979
tp980
a(S'668-531'
p981
S'137'
p982
tp983
a(S'220-719'
p984
S'-499'
p985
tp986
a(S'441-770'
p987
S'-329'
p988
tp989
a(S'978-700'
p990
S'278'
p991
tp992
a(S'296-550'
p993
S'-254'
p994
tp995
a(S'667-891'
p996
S'-224'
p997
tp998
a(S'172-332'
p999
S'-160'
p1000
tp1001
a(S'139-250'
p1002
S'-111'
p1003
tp1004
a(S'293-710'
p1005
S'-417'
p1006
tp1007
a(S'336-246'
p1008
S'90'
p1009
tp1010
a(S'567-657'
p1011
S'-90'
p1012
tp1013
a(S'405-559'
p1014
S'-154'
p1015
tp1016
a(S'880-834'
p1017
S'46'
p1018
tp1019
a(S'881-668'
p1020
S'213'
p1021
tp1022
a(S'430-800'
p1023
S'-370'
p1024
tp1025
a(S'207-825'
p1026
S'-618'
p1027
tp1028
a(S'631-337'
p1029
S'294'
p1030
tp1031
a(S'688-209'
p1032
S'479'
p1033
tp1034
a(S'989-289'
p1035
S'700'
p1036
tp1037
a(S'463-101'
p1038
S'362'
p1039
tp1040
a(S'367-896'
p1041
S'-529'
p1042
tp1043
a(S'686-426'
p1044
S'260'
p1045
tp1046
a(S'676-503'
p1047
S'173'
p1048
tp1049
a(S'730-833'
p1050
S'-103'
p1051
tp1052
a(S'304-883'
p1053
S'-579'
p1054
tp1055
a(S'180-42'
p1056
S'138'
p1057
tp1058
a(S'664-93'
p1059
S'571'
p1060
tp1061
a(S'37-905'
p1062
S'-868'
p1063
tp1064
a(S'0-456'
p1065
S'-456'
p1066
tp1067
a(S'872-807'
p1068
S'65'
p1069
tp1070
a(S'572-387'
p1071
S'185'
p1072
tp1073
a(S'61-86'
p1074
S'-25'
p1075
tp1076
a(S'678-578'
p1077
S'100'
p1078
tp1079
a(S'883-709'
p1080
S'174'
p1081
tp1082
a(S'343-100'
p1083
S'243'
p1084
tp1085
a(S'429-465'
p1086
S'-36'
p1087
tp1088
a(S'803-702'
p1089
S'101'
p1090
tp1091
a(S'735-717'
p1092
S'18'
p1093
tp1094
a(S'216-393'
p1095
S'-177'
p1096
tp1097
a(S'513-265'
p1098
S'248'
p1099
tp1100
a(S'220-927'
p1101
S'-707'
p1102
tp1103
a(S'343-85'
p1104
S'258'
p1105
tp1106
a(S'64-956'
p1107
S'-892'
p1108
tp1109
a(S'164-694'
p1110
S'-530'
p1111
tp1112
a(S'751-776'
p1113
S'-25'
p1114
tp1115
a(S'247-580'
p1116
S'-333'
p1117
tp1118
a(S'710-615'
p1119
S'95'
p1120
tp1121
a(S'639-803'
p1122
S'-164'
p1123
tp1124
a(S'34-838'
p1125
S'-804'
p1126
tp1127
a(S'988-915'
p1128
S'73'
p1129
tp1130
a(S'878-798'
p1131
S'80'
p1132
tp1133
a(S'660-257'
p1134
S'403'
p1135
tp1136
a(S'10-425'
p1137
S'-415'
p1138
tp1139
a(S'606-411'
p1140
S'195'
p1141
tp1142
a(S'713-337'
p1143
S'376'
p1144
tp1145
a(S'525-608'
p1146
S'-83'
p1147
tp1148
a(S'723-386'
p1149
S'337'
p1150
tp1151
a(S'798-151'
p1152
S'647'
p1153
tp1154
a(S'171-216'
p1155
S'-45'
p1156
tp1157
a(S'836-735'
p1158
S'101'
p1159
tp1160
a(S'50-719'
p1161
S'-669'
p1162
tp1163
a(S'13-945'
p1164
S'-932'
p1165
tp1166
a(S'395-788'
p1167
S'-393'
p1168
tp1169
a(S'283-748'
p1170
S'-465'
p1171
tp1172
a(S'648-242'
p1173
S'406'
p1174
tp1175
a(S'980-890'
p1176
S'90'
p1177
tp1178
a(S'320-961'
p1179
S'-641'
p1180
tp1181
a(S'314-984'
p1182
S'-670'
p1183
tp1184
a(S'80-918'
p1185
S'-838'
p1186
tp1187
a(S'989-229'
p1188
S'760'
p1189
tp1190
a(S'517-622'
p1191
S'-105'
p1192
tp1193
a(S'286-53'
p1194
S'233'
p1195
tp1196
a(S'139-935'
p1197
S'-796'
p1198
tp1199
a(S'578-834'
p1200
S'-256'
p1201
tp1202
a(S'859-35'
p1203
S'824'
p1204
tp1205
a(S'688-723'
p1206
S'-35'
p1207
tp1208
a(S'171-949'
p1209
S'-778'
p1210
tp1211
a(S'961-639'
p1212
S'322'
p1213
tp1214
a(S'365-954'
p1215
S'-589'
p1216
tp1217
a(S'193-451'
p1218
S'-258'
p1219
tp1220
a(S'803-943'
p1221
S'-140'
p1222
tp1223
a(S'19-953'
p1224
S'-934'
p1225
tp1226
a(S'627-384'
p1227
S'243'
p1228
tp1229
a(S'960-312'
p1230
S'648'
p1231
tp1232
a(S'482-914'
p1233
S'-432'
p1234
tp1235
a(S'257-59'
p1236
S'198'
p1237
tp1238
a(S'91-276'
p1239
S'-185'
p1240
tp1241
a(S'350-607'
p1242
S'-257'
p1243
tp1244
a(S'948-790'
p1245
S'158'
p1246
tp1247
a(S'486-386'
p1248
S'100'
p1249
tp1250
a(S'542-175'
p1251
S'367'
p1252
tp1253
a(S'307-525'
p1254
S'-218'
p1255
tp1256
a(S'757-503'
p1257
S'254'
p1258
tp1259
a(S'753-668'
p1260
S'85'
p1261
tp1262
a(S'782-96'
p1263
S'686'
p1264
tp1265
a(S'123-586'
p1266
S'-463'
p1267
tp1268
a(S'618-870'
p1269
S'-252'
p1270
tp1271
a(S'556-636'
p1272
S'-80'
p1273
tp1274
a(S'248-141'
p1275
S'107'
p1276
tp1277
a(S'138-483'
p1278
S'-345'
p1279
tp1280
a(S'267-736'
p1281
S'-469'
p1282
tp1283
a(S'667-5'
p1284
S'662'
p1285
tp1286
a(S'732-697'
p1287
S'35'
p1288
tp1289
a(S'691-170'
p1290
S'521'
p1291
tp1292
a(S'940-286'
p1293
S'654'
p1294
tp1295
a(S'758-715'
p1296
S'43'
p1297
tp1298
a(S'389-35'
p1299
S'354'
p1300
tp1301
a(S'392-821'
p1302
S'-429'
p1303
tp1304
a(S'176-632'
p1305
S'-456'
p1306
tp1307
a(S'181-995'
p1308
S'-814'
p1309
tp1310
a(S'502-182'
p1311
S'320'
p1312
tp1313
a(S'203-772'
p1314
S'-569'
p1315
tp1316
a(S'126-155'
p1317
S'-29'
p1318
tp1319
a(S'108-146'
p1320
S'-38'
p1321
tp1322
a(S'579-383'
p1323
S'196'
p1324
tp1325
a(S'921-105'
p1326
S'816'
p1327
tp1328
a(S'626-252'
p1329
S'374'
p1330
tp1331
a(S'94-270'
p1332
S'-176'
p1333
tp1334
a(S'556-856'
p1335
S'-300'
p1336
tp1337
a(S'109-77'
p1338
S'32'
p1339
tp1340
a(S'493-705'
p1341
S'-212'
p1342
tp1343
a(S'778-437'
p1344
S'341'
p1345
tp1346
a(S'124-795'
p1347
S'-671'
p1348
tp1349
a(S'914-90'
p1350
S'824'
p1351
tp1352
a(S'947-856'
p1353
S'91'
p1354
tp1355
a(S'460-185'
p1356
S'275'
p1357
tp1358
a(S'931-44'
p1359
S'887'
p1360
tp1361
a(S'797-7'
p1362
S'790'
p1363
tp1364
a(S'203-725'
p1365
S'-522'
p1366
tp1367
a(S'888-942'
p1368
S'-54'
p1369
tp1370
a(S'903-763'
p1371
S'140'
p1372
tp1373
a(S'966-756'
p1374
S'210'
p1375
tp1376
a(S'313-374'
p1377
S'-61'
p1378
tp1379
a(S'210-691'
p1380
S'-481'
p1381
tp1382
a(S'139-958'
p1383
S'-819'
p1384
tp1385
a(S'118-774'
p1386
S'-656'
p1387
tp1388
a(S'114-723'
p1389
S'-609'
p1390
tp1391
a(S'614-201'
p1392
S'413'
p1393
tp1394
a(S'625-86'
p1395
S'539'
p1396
tp1397
a(S'704-297'
p1398
S'407'
p1399
tp1400
a(S'632-763'
p1401
S'-131'
p1402
tp1403
a(S'714-99'
p1404
S'615'
p1405
tp1406
a(S'943-129'
p1407
S'814'
p1408
tp1409
a(S'821-15'
p1410
S'806'
p1411
tp1412
a(S'625-860'
p1413
S'-235'
p1414
tp1415
a(S'997-848'
p1416
S'149'
p1417
tp1418
a(S'636-3'
p1419
S'633'
p1420
tp1421
a(S'227-837'
p1422
S'-610'
p1423
tp1424
a(S'707-166'
p1425
S'541'
p1426
tp1427
a(S'985-750'
p1428
S'235'
p1429
tp1430
a(S'623-785'
p1431
S'-162'
p1432
tp1433
a(S'432-239'
p1434
S'193'
p1435
tp1436
a(S'682-470'
p1437
S'212'
p1438
tp1439
a(S'568-878'
p1440
S'-310'
p1441
tp1442
a(S'464-544'
p1443
S'-80'
p1444
tp1445
a(S'903-304'
p1446
S'599'
p1447
tp1448
a(S'312-372'
p1449
S'-60'
p1450
tp1451
a(S'757-342'
p1452
S'415'
p1453
tp1454
a(S'65-300'
p1455
S'-235'
p1456
tp1457
a(S'815-418'
p1458
S'397'
p1459
tp1460
a(S'463-842'
p1461
S'-379'
p1462
tp1463
a(S'387-306'
p1464
S'81'
p1465
tp1466
a(S'445-274'
p1467
S'171'
p1468
tp1469
a(S'0-868'
p1470
S'-868'
p1471
tp1472
a(S'988-234'
p1473
S'754'
p1474
tp1475
a(S'596-372'
p1476
S'224'
p1477
tp1478
a(S'352-333'
p1479
S'19'
p1480
tp1481
a(S'193-834'
p1482
S'-641'
p1483
tp1484
a(S'723-676'
p1485
S'47'
p1486
tp1487
a(S'752-230'
p1488
S'522'
p1489
tp1490
a(S'559-310'
p1491
S'249'
p1492
tp1493
a(S'480-824'
p1494
S'-344'
p1495
tp1496
a(S'450-354'
p1497
S'96'
p1498
tp1499
a(S'518-555'
p1500
S'-37'
p1501
tp1502
a(S'487-769'
p1503
S'-282'
p1504
tp1505
a(S'310-713'
p1506
S'-403'
p1507
tp1508
a(S'205-287'
p1509
S'-82'
p1510
tp1511
a(S'138-72'
p1512
S'66'
p1513
tp1514
a(S'15-435'
p1515
S'-420'
p1516
tp1517
a(S'452-192'
p1518
S'260'
p1519
tp1520
a(S'136-659'
p1521
S'-523'
p1522
tp1523
a(S'466-241'
p1524
S'225'
p1525
tp1526
a(S'943-630'
p1527
S'313'
p1528
tp1529
a(S'64-155'
p1530
S'-91'
p1531
tp1532
a(S'678-460'
p1533
S'218'
p1534
tp1535
a(S'570-77'
p1536
S'493'
p1537
tp1538
a(S'388-190'
p1539
S'198'
p1540
tp1541
a(S'354-419'
p1542
S'-65'
p1543
tp1544
a(S'193-310'
p1545
S'-117'
p1546
tp1547
a(S'971-886'
p1548
S'85'
p1549
tp1550
a(S'736-8'
p1551
S'728'
p1552
tp1553
a(S'687-842'
p1554
S'-155'
p1555
tp1556
a(S'741-167'
p1557
S'574'
p1558
tp1559
a(S'752-603'
p1560
S'149'
p1561
tp1562
a(S'109-921'
p1563
S'-812'
p1564
tp1565
a(S'432-302'
p1566
S'130'
p1567
tp1568
a(S'863-618'
p1569
S'245'
p1570
tp1571
a(S'613-109'
p1572
S'504'
p1573
tp1574
a(S'360-871'
p1575
S'-511'
p1576
tp1577
a(S'67-388'
p1578
S'-321'
p1579
tp1580
a(S'852-532'
p1581
S'320'
p1582
tp1583
a(S'826-59'
p1584
S'767'
p1585
tp1586
a(S'362-162'
p1587
S'200'
p1588
tp1589
a(S'690-940'
p1590
S'-250'
p1591
tp1592
a(S'640-996'
p1593
S'-356'
p1594
tp1595
a(S'428-50'
p1596
S'378'
p1597
tp1598
a(S'970-192'
p1599
S'778'
p1600
tp1601
a(S'124-601'
p1602
S'-477'
p1603
tp1604
a(S'886-151'
p1605
S'735'
p1606
tp1607
a(S'679-354'
p1608
S'325'
p1609
tp1610
a(S'568-148'
p1611
S'420'
p1612
tp1613
a(S'796-440'
p1614
S'356'
p1615
tp1616
a(S'250-977'
p1617
S'-727'
p1618
tp1619
a(S'239-804'
p1620
S'-565'
p1621
tp1622
a(S'616-850'
p1623
S'-234'
p1624
tp1625
a(S'40-461'
p1626
S'-421'
p1627
tp1628
a(S'258-43'
p1629
S'215'
p1630
tp1631
a(S'20-338'
p1632
S'-318'
p1633
tp1634
a(S'741-835'
p1635
S'-94'
p1636
tp1637
a(S'450-137'
p1638
S'313'
p1639
tp1640
a(S'531-766'
p1641
S'-235'
p1642
tp1643
a(S'360-909'
p1644
S'-549'
p1645
tp1646
a(S'466-229'
p1647
S'237'
p1648
tp1649
a(S'645-241'
p1650
S'404'
p1651
tp1652
a(S'844-655'
p1653
S'189'
p1654
tp1655
a(S'565-342'
p1656
S'223'
p1657
tp1658
a(S'944-208'
p1659
S'736'
p1660
tp1661
a(S'82-698'
p1662
S'-616'
p1663
tp1664
a(S'193-8'
p1665
S'185'
p1666
tp1667
a(S'770-148'
p1668
S'622'
p1669
tp1670
a(S'289-969'
p1671
S'-680'
p1672
tp1673
a(S'465-804'
p1674
S'-339'
p1675
tp1676
a(S'203-286'
p1677
S'-83'
p1678
tp1679
a(S'764-626'
p1680
S'138'
p1681
tp1682
a(S'23-682'
p1683
S'-659'
p1684
tp1685
a(S'742-416'
p1686
S'326'
p1687
tp1688
a(S'341-362'
p1689
S'-21'
p1690
tp1691
a(S'965-419'
p1692
S'546'
p1693
tp1694
a(S'230-328'
p1695
S'-98'
p1696
tp1697
a(S'413-671'
p1698
S'-258'
p1699
tp1700
a(S'338-508'
p1701
S'-170'
p1702
tp1703
a(S'968-210'
p1704
S'758'
p1705
tp1706
a(S'707-7'
p1707
S'700'
p1708
tp1709
a(S'887-466'
p1710
S'421'
p1711
tp1712
a(S'673-936'
p1713
S'-263'
p1714
tp1715
a(S'441-776'
p1716
S'-335'
p1717
tp1718
a(S'577-260'
p1719
S'317'
p1720
tp1721
a(S'106-239'
p1722
S'-133'
p1723
tp1724
a(S'185-217'
p1725
S'-32'
p1726
tp1727
a(S'309-264'
p1728
S'45'
p1729
tp1730
a(S'513-686'
p1731
S'-173'
p1732
tp1733
a(S'200-782'
p1734
S'-582'
p1735
tp1736
a(S'989-742'
p1737
S'247'
p1738
tp1739
a(S'997-128'
p1740
S'869'
p1741
tp1742
a(S'23-243'
p1743
S'-220'
p1744
tp1745
a(S'472-657'
p1746
S'-185'
p1747
tp1748
a(S'627-215'
p1749
S'412'
p1750
tp1751
a(S'486-557'
p1752
S'-71'
p1753
tp1754
a(S'590-864'
p1755
S'-274'
p1756
tp1757
a(S'526-60'
p1758
S'466'
p1759
tp1760
a(S'509-20'
p1761
S'489'
p1762
tp1763
a(S'669-54'
p1764
S'615'
p1765
tp1766
a(S'631-608'
p1767
S'23'
p1768
tp1769
a(S'901-418'
p1770
S'483'
p1771
tp1772
a(S'257-858'
p1773
S'-601'
p1774
tp1775
a(S'789-815'
p1776
S'-26'
p1777
tp1778
a(S'46-317'
p1779
S'-271'
p1780
tp1781
a(S'926-957'
p1782
S'-31'
p1783
tp1784
a(S'484-393'
p1785
S'91'
p1786
tp1787
a(S'633-669'
p1788
S'-36'
p1789
tp1790
a(S'745-504'
p1791
S'241'
p1792
tp1793
a(S'672-154'
p1794
S'518'
p1795
tp1796
a(S'546-464'
p1797
S'82'
p1798
tp1799
a(S'690-719'
p1800
S'-29'
p1801
tp1802
a(S'617-729'
p1803
S'-112'
p1804
tp1805
a(S'853-998'
p1806
S'-145'
p1807
tp1808
a(S'587-732'
p1809
S'-145'
p1810
tp1811
a(S'374-676'
p1812
S'-302'
p1813
tp1814
a(S'289-292'
p1815
S'-3'
p1816
tp1817
a(S'940-886'
p1818
S'54'
p1819
tp1820
a(S'876-568'
p1821
S'308'
p1822
tp1823
a(S'125-296'
p1824
S'-171'
p1825
tp1826
a(S'173-71'
p1827
S'102'
p1828
tp1829
a(S'911-470'
p1830
S'441'
p1831
tp1832
a(S'920-381'
p1833
S'539'
p1834
tp1835
a(S'182-718'
p1836
S'-536'
p1837
tp1838
a(S'724-426'
p1839
S'298'
p1840
tp1841
a(S'546-796'
p1842
S'-250'
p1843
tp1844
a(S'834-930'
p1845
S'-96'
p1846
tp1847
a(S'539-20'
p1848
S'519'
p1849
tp1850
a(S'326-173'
p1851
S'153'
p1852
tp1853
a(S'935-27'
p1854
S'908'
p1855
tp1856
a(S'85-419'
p1857
S'-334'
p1858
tp1859
a(S'437-40'
p1860
S'397'
p1861
tp1862
a(S'577-945'
p1863
S'-368'
p1864
tp1865
a(S'752-681'
p1866
S'71'
p1867
tp1868
a(S'297-30'
p1869
S'267'
p1870
tp1871
a(S'250-727'
p1872
S'-477'
p1873
tp1874
a(S'687-889'
p1875
S'-202'
p1876
tp1877
a(S'438-40'
p1878
S'398'
p1879
tp1880
a(S'335-338'
p1881
S'-3'
p1882
tp1883
a(S'887-486'
p1884
S'401'
p1885
tp1886
a(S'776-545'
p1887
S'231'
p1888
tp1889
a(S'379-801'
p1890
S'-422'
p1891
tp1892
a(S'388-936'
p1893
S'-548'
p1894
tp1895
a(S'940-119'
p1896
S'821'
p1897
tp1898
a(S'186-631'
p1899
S'-445'
p1900
tp1901
a(S'622-177'
p1902
S'445'
p1903
tp1904
a(S'754-761'
p1905
S'-7'
p1906
tp1907
a(S'124-447'
p1908
S'-323'
p1909
tp1910
a(S'278-516'
p1911
S'-238'
p1912
tp1913
a(S'31-112'
p1914
S'-81'
p1915
tp1916
a(S'212-200'
p1917
S'12'
p1918
tp1919
a(S'400-827'
p1920
S'-427'
p1921
tp1922
a(S'377-627'
p1923
S'-250'
p1924
tp1925
a(S'268-721'
p1926
S'-453'
p1927
tp1928
a(S'257-109'
p1929
S'148'
p1930
tp1931
a(S'956-182'
p1932
S'774'
p1933
tp1934
a(S'462-397'
p1935
S'65'
p1936
tp1937
a(S'800-355'
p1938
S'445'
p1939
tp1940
a(S'791-25'
p1941
S'766'
p1942
tp1943
a(S'56-432'
p1944
S'-376'
p1945
tp1946
a(S'306-793'
p1947
S'-487'
p1948
tp1949
a(S'50-167'
p1950
S'-117'
p1951
tp1952
a(S'463-589'
p1953
S'-126'
p1954
tp1955
a(S'126-900'
p1956
S'-774'
p1957
tp1958
a(S'720-383'
p1959
S'337'
p1960
tp1961
a(S'496-885'
p1962
S'-389'
p1963
tp1964
a(S'685-681'
p1965
S'4'
p1966
tp1967
a(S'241-513'
p1968
S'-272'
p1969
tp1970
a(S'39-818'
p1971
S'-779'
p1972
tp1973
a(S'828-940'
p1974
S'-112'
p1975
tp1976
a(S'581-212'
p1977
S'369'
p1978
tp1979
a(S'846-174'
p1980
S'672'
p1981
tp1982
a(S'971-200'
p1983
S'771'
p1984
tp1985
a(S'842-364'
p1986
S'478'
p1987
tp1988
a(S'424-658'
p1989
S'-234'
p1990
tp1991
a(S'856-24'
p1992
S'832'
p1993
tp1994
a(S'151-963'
p1995
S'-812'
p1996
tp1997
a(S'835-911'
p1998
S'-76'
p1999
tp2000
a(S'128-140'
p2001
S'-12'
p2002
tp2003
a(S'377-445'
p2004
S'-68'
p2005
tp2006
a(S'10-902'
p2007
S'-892'
p2008
tp2009
a(S'451-75'
p2010
S'376'
p2011
tp2012
a(S'494-129'
p2013
S'365'
p2014
tp2015
a(S'676-147'
p2016
S'529'
p2017
tp2018
a(S'900-423'
p2019
S'477'
p2020
tp2021
a(S'153-490'
p2022
S'-337'
p2023
tp2024
a(S'893-554'
p2025
S'339'
p2026
tp2027
a(S'109-588'
p2028
S'-479'
p2029
tp2030
a(S'206-606'
p2031
S'-400'
p2032
tp2033
a(S'944-180'
p2034
S'764'
p2035
tp2036
a(S'326-867'
p2037
S'-541'
p2038
tp2039
a(S'712-68'
p2040
S'644'
p2041
tp2042
a(S'101-204'
p2043
S'-103'
p2044
tp2045
a(S'427-755'
p2046
S'-328'
p2047
tp2048
a(S'864-94'
p2049
S'770'
p2050
tp2051
a(S'833-476'
p2052
S'357'
p2053
tp2054
a(S'710-507'
p2055
S'203'
p2056
tp2057
a(S'955-989'
p2058
S'-34'
p2059
tp2060
a(S'152-318'
p2061
S'-166'
p2062
tp2063
a(S'546-966'
p2064
S'-420'
p2065
tp2066
a(S'948-317'
p2067
S'631'
p2068
tp2069
a(S'128-687'
p2070
S'-559'
p2071
tp2072
a(S'681-992'
p2073
S'-311'
p2074
tp2075
a(S'658-240'
p2076
S'418'
p2077
tp2078
a(S'886-735'
p2079
S'151'
p2080
tp2081
a(S'968-257'
p2082
S'711'
p2083
tp2084
a(S'52-870'
p2085
S'-818'
p2086
tp2087
a(S'129-682'
p2088
S'-553'
p2089
tp2090
a(S'543-864'
p2091
S'-321'
p2092
tp2093
a(S'127-802'
p2094
S'-675'
p2095
tp2096
a(S'824-686'
p2097
S'138'
p2098
tp2099
a(S'583-474'
p2100
S'109'
p2101
tp2102
a(S'442-287'
p2103
S'155'
p2104
tp2105
a(S'670-824'
p2106
S'-154'
p2107
tp2108
a(S'730-109'
p2109
S'621'
p2110
tp2111
a(S'516-766'
p2112
S'-250'
p2113
tp2114
a(S'568-639'
p2115
S'-71'
p2116
tp2117
a(S'874-262'
p2118
S'612'
p2119
tp2120
a(S'491-708'
p2121
S'-217'
p2122
tp2123
a(S'794-62'
p2124
S'732'
p2125
tp2126
a(S'35-959'
p2127
S'-924'
p2128
tp2129
a(S'529-468'
p2130
S'61'
p2131
tp2132
a(S'930-873'
p2133
S'57'
p2134
tp2135
a(S'105-868'
p2136
S'-763'
p2137
tp2138
a(S'659-93'
p2139
S'566'
p2140
tp2141
a(S'964-545'
p2142
S'419'
p2143
tp2144
a(S'20-205'
p2145
S'-185'
p2146
tp2147
a(S'206-701'
p2148
S'-495'
p2149
tp2150
a(S'842-649'
p2151
S'193'
p2152
tp2153
a(S'303-369'
p2154
S'-66'
p2155
tp2156
a(S'69-715'
p2157
S'-646'
p2158
tp2159
a(S'912-36'
p2160
S'876'
p2161
tp2162
a(S'822-40'
p2163
S'782'
p2164
tp2165
a(S'699-576'
p2166
S'123'
p2167
tp2168
a(S'133-582'
p2169
S'-449'
p2170
tp2171
a(S'218-317'
p2172
S'-99'
p2173
tp2174
a(S'856-879'
p2175
S'-23'
p2176
tp2177
a(S'256-203'
p2178
S'53'
p2179
tp2180
a(S'927-25'
p2181
S'902'
p2182
tp2183
a(S'275-929'
p2184
S'-654'
p2185
tp2186
a(S'738-946'
p2187
S'-208'
p2188
tp2189
a(S'484-991'
p2190
S'-507'
p2191
tp2192
a(S'723-344'
p2193
S'379'
p2194
tp2195
a(S'600-647'
p2196
S'-47'
p2197
tp2198
a(S'551-950'
p2199
S'-399'
p2200
tp2201
a(S'382-522'
p2202
S'-140'
p2203
tp2204
a(S'407-908'
p2205
S'-501'
p2206
tp2207
a(S'737-175'
p2208
S'562'
p2209
tp2210
a(S'701-427'
p2211
S'274'
p2212
tp2213
a(S'693-851'
p2214
S'-158'
p2215
tp2216
a(S'796-979'
p2217
S'-183'
p2218
tp2219
a(S'771-701'
p2220
S'70'
p2221
tp2222
a(S'253-838'
p2223
S'-585'
p2224
tp2225
a(S'70-435'
p2226
S'-365'
p2227
tp2228
a(S'9-589'
p2229
S'-580'
p2230
tp2231
a(S'703-842'
p2232
S'-139'
p2233
tp2234
a(S'175-107'
p2235
S'68'
p2236
tp2237
a(S'438-156'
p2238
S'282'
p2239
tp2240
a(S'99-178'
p2241
S'-79'
p2242
tp2243
a(S'533-247'
p2244
S'286'
p2245
tp2246
a(S'781-328'
p2247
S'453'
p2248
tp2249
a(S'962-335'
p2250
S'627'
p2251
tp2252
a(S'932-862'
p2253
S'70'
p2254
tp2255
a(S'652-837'
p2256
S'-185'
p2257
tp2258
a(S'706-380'
p2259
S'326'
p2260
tp2261
a(S'246-202'
p2262
S'44'
p2263
tp2264
a(S'497-662'
p2265
S'-165'
p2266
tp2267
a(S'629-414'
p2268
S'215'
p2269
tp2270
a(S'43-796'
p2271
S'-753'
p2272
tp2273
a(S'874-380'
p2274
S'494'
p2275
tp2276
a(S'35-537'
p2277
S'-502'
p2278
tp2279
a(S'15-302'
p2280
S'-287'
p2281
tp2282
a(S'846-364'
p2283
S'482'
p2284
tp2285
a(S'995-870'
p2286
S'125'
p2287
tp2288
a(S'372-292'
p2289
S'80'
p2290
tp2291
a(S'98-856'
p2292
S'-758'
p2293
tp2294
a(S'520-18'
p2295
S'502'
p2296
tp2297
a(S'278-590'
p2298
S'-312'
p2299
tp2300
a(S'938-689'
p2301
S'249'
p2302
tp2303
a(S'446-947'
p2304
S'-501'
p2305
tp2306
a(S'458-666'
p2307
S'-208'
p2308
tp2309
a(S'427-302'
p2310
S'125'
p2311
tp2312
a(S'332-170'
p2313
S'162'
p2314
tp2315
a(S'536-473'
p2316
S'63'
p2317
tp2318
a(S'304-509'
p2319
S'-205'
p2320
tp2321
a(S'526-489'
p2322
S'37'
p2323
tp2324
a(S'93-724'
p2325
S'-631'
p2326
tp2327
a(S'633-465'
p2328
S'168'
p2329
tp2330
a(S'983-678'
p2331
S'305'
p2332
tp2333
a(S'32-432'
p2334
S'-400'
p2335
tp2336
a(S'762-425'
p2337
S'337'
p2338
tp2339
a(S'521-140'
p2340
S'381'
p2341
tp2342
a(S'162-436'
p2343
S'-274'
p2344
tp2345
a(S'664-72'
p2346
S'592'
p2347
tp2348
a(S'887-433'
p2349
S'454'
p2350
tp2351
a(S'734-376'
p2352
S'358'
p2353
tp2354
a(S'742-992'
p2355
S'-250'
p2356
tp2357
a(S'90-834'
p2358
S'-744'
p2359
tp2360
a(S'366-888'
p2361
S'-522'
p2362
tp2363
a(S'953-596'
p2364
S'357'
p2365
tp2366
a(S'704-391'
p2367
S'313'
p2368
tp2369
a(S'469-379'
p2370
S'90'
p2371
tp2372
a(S'738-662'
p2373
S'76'
p2374
tp2375
a(S'719-484'
p2376
S'235'
p2377
tp2378
a(S'387-685'
p2379
S'-298'
p2380
tp2381
a(S'489-589'
p2382
S'-100'
p2383
tp2384
a(S'686-742'
p2385
S'-56'
p2386
tp2387
a(S'327-927'
p2388
S'-600'
p2389
tp2390
a(S'702-592'
p2391
S'110'
p2392
tp2393
a(S'108-283'
p2394
S'-175'
p2395
tp2396
a(S'643-492'
p2397
S'151'
p2398
tp2399
a(S'96-324'
p2400
S'-228'
p2401
tp2402
a(S'557-873'
p2403
S'-316'
p2404
tp2405
a(S'721-652'
p2406
S'69'
p2407
tp2408
a(S'708-357'
p2409
S'351'
p2410
tp2411
a(S'94-989'
p2412
S'-895'
p2413
tp2414
a(S'901-824'
p2415
S'77'
p2416
tp2417
a(S'409-913'
p2418
S'-504'
p2419
tp2420
a(S'497-87'
p2421
S'410'
p2422
tp2423
a(S'950-76'
p2424
S'874'
p2425
tp2426
a(S'339-533'
p2427
S'-194'
p2428
tp2429
a(S'930-13'
p2430
S'917'
p2431
tp2432
a(S'143-497'
p2433
S'-354'
p2434
tp2435
a(S'473-911'
p2436
S'-438'
p2437
tp2438
a(S'678-908'
p2439
S'-230'
p2440
tp2441
a(S'624-998'
p2442
S'-374'
p2443
tp2444
a(S'270-622'
p2445
S'-352'
p2446
tp2447
a(S'66-284'
p2448
S'-218'
p2449
tp2450
a(S'798-408'
p2451
S'390'
p2452
tp2453
a(S'816-595'
p2454
S'221'
p2455
tp2456
a(S'60-359'
p2457
S'-299'
p2458
tp2459
a(S'673-412'
p2460
S'261'
p2461
tp2462
a(S'182-749'
p2463
S'-567'
p2464
tp2465
a(S'452-780'
p2466
S'-328'
p2467
tp2468
a(S'68-141'
p2469
S'-73'
p2470
tp2471
a(S'521-207'
p2472
S'314'
p2473
tp2474
a(S'874-724'
p2475
S'150'
p2476
tp2477
a(S'865-675'
p2478
S'190'
p2479
tp2480
a(S'981-988'
p2481
S'-7'
p2482
tp2483
a(S'70-924'
p2484
S'-854'
p2485
tp2486
a(S'186-948'
p2487
S'-762'
p2488
tp2489
a(S'504-329'
p2490
S'175'
p2491
tp2492
a(S'961-904'
p2493
S'57'
p2494
tp2495
a(S'948-648'
p2496
S'300'
p2497
tp2498
a(S'77-35'
p2499
S'42'
p2500
tp2501
a(S'943-987'
p2502
S'-44'
p2503
tp2504
a(S'315-988'
p2505
S'-673'
p2506
tp2507
a(S'611-221'
p2508
S'390'
p2509
tp2510
a(S'470-538'
p2511
S'-68'
p2512
tp2513
a(S'174-77'
p2514
S'97'
p2515
tp2516
a(S'192-164'
p2517
S'28'
p2518
tp2519
a(S'266-100'
p2520
S'166'
p2521
tp2522
a(S'547-510'
p2523
S'37'
p2524
tp2525
a(S'224-606'
p2526
S'-382'
p2527
tp2528
a(S'17-122'
p2529
S'-105'
p2530
tp2531
a(S'544-401'
p2532
S'143'
p2533
tp2534
a(S'733-39'
p2535
S'694'
p2536
tp2537
a(S'471-98'
p2538
S'373'
p2539
tp2540
a(S'311-890'
p2541
S'-579'
p2542
tp2543
a(S'724-497'
p2544
S'227'
p2545
tp2546
a(S'993-218'
p2547
S'775'
p2548
tp2549
a(S'765-96'
p2550
S'669'
p2551
tp2552
a(S'311-148'
p2553
S'163'
p2554
tp2555
a(S'963-955'
p2556
g161
tp2557
a(S'961-48'
p2558
S'913'
p2559
tp2560
a(S'754-263'
p2561
S'491'
p2562
tp2563
a(S'450-341'
p2564
S'109'
p2565
tp2566
a(S'246-12'
p2567
S'234'
p2568
tp2569
a(S'656-314'
p2570
S'342'
p2571
tp2572
a(S'510-691'
p2573
S'-181'
p2574
tp2575
a(S'702-538'
p2576
S'164'
p2577
tp2578
a(S'910-75'
p2579
S'835'
p2580
tp2581
a(S'417-96'
p2582
S'321'
p2583
tp2584
a(S'619-337'
p2585
S'282'
p2586
tp2587
a(S'625-907'
p2588
S'-282'
p2589
tp2590
a(S'951-880'
p2591
S'71'
p2592
tp2593
a(S'517-172'
p2594
S'345'
p2595
tp2596
a(S'757-891'
p2597
S'-134'
p2598
tp2599
a(S'152-380'
p2600
S'-228'
p2601
tp2602
a(S'834-291'
p2603
S'543'
p2604
tp2605
a(S'309-122'
p2606
S'187'
p2607
tp2608
a(S'998-739'
p2609
S'259'
p2610
tp2611
a(S'331-858'
p2612
S'-527'
p2613
tp2614
a(S'771-394'
p2615
S'377'
p2616
tp2617
a(S'691-67'
p2618
S'624'
p2619
tp2620
a(S'83-910'
p2621
S'-827'
p2622
tp2623
a(S'746-340'
p2624
S'406'
p2625
tp2626
a(S'416-737'
p2627
S'-321'
p2628
tp2629
a(S'765-100'
p2630
S'665'
p2631
tp2632
a(S'373-282'
p2633
S'91'
p2634
tp2635
a(S'242-275'
p2636
S'-33'
p2637
tp2638
a(S'407-828'
p2639
S'-421'
p2640
tp2641
a(S'649-859'
p2642
S'-210'
p2643
tp2644
a(S'411-68'
p2645
S'343'
p2646
tp2647
a(S'531-58'
p2648
S'473'
p2649
tp2650
a(S'849-73'
p2651
S'776'
p2652
tp2653
a(S'649-784'
p2654
S'-135'
p2655
tp2656
a(S'760-229'
p2657
S'531'
p2658
tp2659
a(S'649-632'
p2660
S'17'
p2661
tp2662
a(S'893-951'
p2663
S'-58'
p2664
tp2665
a(S'516-142'
p2666
S'374'
p2667
tp2668
a(S'774-995'
p2669
S'-221'
p2670
tp2671
a(S'767-269'
p2672
S'498'
p2673
tp2674
a(S'951-579'
p2675
S'372'
p2676
tp2677
a(S'737-899'
p2678
S'-162'
p2679
tp2680
a(S'11-436'
p2681
S'-425'
p2682
tp2683
a(S'506-915'
p2684
S'-409'
p2685
tp2686
a(S'993-989'
p2687
g1966
tp2688
a(S'342-216'
p2689
S'126'
p2690
tp2691
a(S'106-516'
p2692
S'-410'
p2693
tp2694
a(S'994-490'
p2695
S'504'
p2696
tp2697
a(S'505-647'
p2698
S'-142'
p2699
tp2700
a(S'199-530'
p2701
S'-331'
p2702
tp2703
a(S'171-466'
p2704
S'-295'
p2705
tp2706
a(S'717-748'
p2707
S'-31'
p2708
tp2709
a(S'873-653'
p2710
S'220'
p2711
tp2712
a(S'682-150'
p2713
S'532'
p2714
tp2715
a(S'975-336'
p2716
S'639'
p2717
tp2718
a(S'869-261'
p2719
S'608'
p2720
tp2721
a(S'157-210'
p2722
S'-53'
p2723
tp2724
a(S'199-359'
p2725
S'-160'
p2726
tp2727
a(S'213-593'
p2728
S'-380'
p2729
tp2730
a(S'194-832'
p2731
S'-638'
p2732
tp2733
a(S'549-547'
p2734
g973
tp2735
a(S'889-933'
p2736
S'-44'
p2737
tp2738
a(S'208-605'
p2739
S'-397'
p2740
tp2741
a(S'710-346'
p2742
S'364'
p2743
tp2744
a(S'669-1'
p2745
S'668'
p2746
tp2747
a(S'30-204'
p2748
S'-174'
p2749
tp2750
a(S'455-470'
p2751
S'-15'
p2752
tp2753
a(S'966-549'
p2754
S'417'
p2755
tp2756
a(S'600-377'
p2757
S'223'
p2758
tp2759
a(S'2-752'
p2760
S'-750'
p2761
tp2762
a(S'827-446'
p2763
S'381'
p2764
tp2765
a(S'285-988'
p2766
S'-703'
p2767
tp2768
a(S'941-849'
p2769
S'92'
p2770
tp2771
a(S'311-216'
p2772
S'95'
p2773
tp2774
a(S'278-652'
p2775
S'-374'
p2776
tp2777
a(S'733-721'
p2778
S'12'
p2779
tp2780
a(S'444-813'
p2781
S'-369'
p2782
tp2783
a(S'21-815'
p2784
S'-794'
p2785
tp2786
a(S'704-985'
p2787
S'-281'
p2788
tp2789
a(S'777-696'
p2790
S'81'
p2791
tp2792
a(S'421-283'
p2793
S'138'
p2794
tp2795
a(S'174-509'
p2796
S'-335'
p2797
tp2798
a(S'295-515'
p2799
S'-220'
p2800
tp2801
a(S'948-883'
p2802
S'65'
p2803
tp2804
a(S'536-955'
p2805
S'-419'
p2806
tp2807
a(S'524-46'
p2808
S'478'
p2809
tp2810
a(S'730-819'
p2811
S'-89'
p2812
tp2813
a(S'721-995'
p2814
S'-274'
p2815
tp2816
a(S'469-232'
p2817
S'237'
p2818
tp2819
a(S'252-824'
p2820
S'-572'
p2821
tp2822
a(S'458-658'
p2823
S'-200'
p2824
tp2825
a(S'183-125'
p2826
S'58'
p2827
tp2828
a(S'290-159'
p2829
S'131'
p2830
tp2831
a(S'30-868'
p2832
S'-838'
p2833
tp2834
a(S'672-168'
p2835
S'504'
p2836
tp2837
a(S'346-542'
p2838
S'-196'
p2839
tp2840
a(S'336-570'
p2841
S'-234'
p2842
tp2843
a(S'264-99'
p2844
S'165'
p2845
tp2846
a(S'621-790'
p2847
S'-169'
p2848
tp2849
a(S'434-18'
p2850
S'416'
p2851
tp2852
a(S'601-949'
p2853
S'-348'
p2854
tp2855
a(S'856-990'
p2856
S'-134'
p2857
tp2858
a(S'743-615'
p2859
S'128'
p2860
tp2861
a(S'898-575'
p2862
S'323'
p2863
tp2864
a(S'492-293'
p2865
S'199'
p2866
tp2867
a(S'736-587'
p2868
S'149'
p2869
tp2870
a(S'400-238'
p2871
S'162'
p2872
tp2873
a(S'308-860'
p2874
S'-552'
p2875
tp2876
a(S'899-660'
p2877
S'239'
p2878
tp2879
a(S'919-160'
p2880
S'759'
p2881
tp2882
a(S'164-713'
p2883
S'-549'
p2884
tp2885
a(S'156-62'
p2886
S'94'
p2887
tp2888
a(S'710-179'
p2889
S'531'
p2890
tp2891
a(S'484-32'
p2892
S'452'
p2893
tp2894
a(S'407-979'
p2895
S'-572'
p2896
tp2897
a(S'836-38'
p2898
S'798'
p2899
tp2900
a(S'144-579'
p2901
S'-435'
p2902
tp2903
a(S'717-838'
p2904
S'-121'
p2905
tp2906
a(S'433-721'
p2907
S'-288'
p2908
tp2909
a(S'40-213'
p2910
S'-173'
p2911
tp2912
a(S'757-781'
p2913
S'-24'
p2914
tp2915
a(S'786-990'
p2916
S'-204'
p2917
tp2918
a(S'873-864'
p2919
g842
tp2920
a(S'12-860'
p2921
S'-848'
p2922
tp2923
a(S'85-274'
p2924
S'-189'
p2925
tp2926
a(S'272-588'
p2927
S'-316'
p2928
tp2929
a(S'442-687'
p2930
S'-245'
p2931
tp2932
a(S'260-162'
p2933
S'98'
p2934
tp2935
a(S'187-278'
p2936
S'-91'
p2937
tp2938
a(S'794-231'
p2939
S'563'
p2940
tp2941
a(S'158-653'
p2942
S'-495'
p2943
tp2944
a(S'701-339'
p2945
S'362'
p2946
tp2947
a(S'648-991'
p2948
S'-343'
p2949
tp2950
a(S'442-845'
p2951
S'-403'
p2952
tp2953
a(S'214-893'
p2954
S'-679'
p2955
tp2956
a(S'508-255'
p2957
S'253'
p2958
tp2959
a(S'340-648'
p2960
S'-308'
p2961
tp2962
a(S'816-639'
p2963
S'177'
p2964
tp2965
a(S'620-235'
p2966
S'385'
p2967
tp2968
a(S'328-713'
p2969
S'-385'
p2970
tp2971
a(S'541-107'
p2972
S'434'
p2973
tp2974
a(S'190-484'
p2975
S'-294'
p2976
tp2977
a(S'909-117'
p2978
S'792'
p2979
tp2980
a(S'524-627'
p2981
S'-103'
p2982
tp2983
a(S'457-727'
p2984
S'-270'
p2985
tp2986
a(S'819-175'
p2987
S'644'
p2988
tp2989
a(S'227-387'
p2990
S'-160'
p2991
tp2992
a(S'994-430'
p2993
S'564'
p2994
tp2995
a(S'837-510'
p2996
S'327'
p2997
tp2998
a(S'725-518'
p2999
S'207'
p3000
tp3001
a(S'33-916'
p3002
S'-883'
p3003
tp3004
a(S'784-985'
p3005
S'-201'
p3006
tp3007
a(S'83-880'
p3008
S'-797'
p3009
tp3010
a(S'717-855'
p3011
S'-138'
p3012
tp3013
a(S'728-18'
p3014
S'710'
p3015
tp3016
a(S'358-275'
p3017
S'83'
p3018
tp3019
a(S'573-97'
p3020
S'476'
p3021
tp3022
a(S'21-275'
p3023
S'-254'
p3024
tp3025
a(S'200-526'
p3026
S'-326'
p3027
tp3028
a(S'215-65'
p3029
S'150'
p3030
tp3031
a(S'868-153'
p3032
S'715'
p3033
tp3034
a(S'639-733'
p3035
S'-94'
p3036
tp3037
a(S'349-665'
p3038
S'-316'
p3039
tp3040
a(S'79-312'
p3041
S'-233'
p3042
tp3043
a(S'871-699'
p3044
S'172'
p3045
tp3046
a(S'397-813'
p3047
S'-416'
p3048
tp3049
a(S'766-162'
p3050
S'604'
p3051
tp3052
a(S'904-673'
p3053
S'231'
p3054
tp3055
a(S'188-225'
p3056
S'-37'
p3057
tp3058
a(S'661-369'
p3059
S'292'
p3060
tp3061
a(S'477-848'
p3062
S'-371'
p3063
tp3064
a(S'31-360'
p3065
S'-329'
p3066
tp3067
a(S'809-785'
p3068
S'24'
p3069
tp3070
a(S'300-42'
p3071
S'258'
p3072
tp3073
a(S'540-926'
p3074
S'-386'
p3075
tp3076
a(S'754-816'
p3077
S'-62'
p3078
tp3079
a(S'394-472'
p3080
S'-78'
p3081
tp3082
a(S'152-339'
p3083
S'-187'
p3084
tp3085
a(S'555-217'
p3086
S'338'
p3087
tp3088
a(S'300-571'
p3089
S'-271'
p3090
tp3091
a(S'518-790'
p3092
S'-272'
p3093
tp3094
a(S'810-691'
p3095
S'119'
p3096
tp3097
a(S'287-294'
p3098
S'-7'
p3099
tp3100
a(S'857-267'
p3101
S'590'
p3102
tp3103
a(S'57-661'
p3104
S'-604'
p3105
tp3106
a(S'946-169'
p3107
S'777'
p3108
tp3109
a(S'550-425'
p3110
S'125'
p3111
tp3112
a(S'296-706'
p3113
S'-410'
p3114
tp3115
a(S'488-825'
p3116
S'-337'
p3117
tp3118
a(S'982-882'
p3119
S'100'
p3120
tp3121
a(S'947-902'
p3122
S'45'
p3123
tp3124
a(S'847-217'
p3125
S'630'
p3126
tp3127
a(S'605-160'
p3128
S'445'
p3129
tp3130
a(S'678-194'
p3131
S'484'
p3132
tp3133
a(S'248-17'
p3134
S'231'
p3135
tp3136
a(S'986-610'
p3137
S'376'
p3138
tp3139
a(S'97-791'
p3140
S'-694'
p3141
tp3142
a(S'672-152'
p3143
S'520'
p3144
tp3145
a(S'927-985'
p3146
S'-58'
p3147
tp3148
a(S'672-590'
p3149
S'82'
p3150
tp3151
a(S'628-424'
p3152
S'204'
p3153
tp3154
a(S'934-399'
p3155
S'535'
p3156
tp3157
a(S'68-895'
p3158
S'-827'
p3159
tp3160
a(S'298-659'
p3161
S'-361'
p3162
tp3163
a(S'357-958'
p3164
S'-601'
p3165
tp3166
a(S'970-312'
p3167
S'658'
p3168
tp3169
a(S'846-986'
p3170
S'-140'
p3171
tp3172
a(S'184-33'
p3173
S'151'
p3174
tp3175
a(S'753-930'
p3176
S'-177'
p3177
tp3178
a(S'962-702'
p3179
S'260'
p3180
tp3181
a(S'997-728'
p3182
S'269'
p3183
tp3184
a(S'473-748'
p3185
S'-275'
p3186
tp3187
a(S'560-153'
p3188
S'407'
p3189
tp3190
a(S'838-955'
p3191
S'-117'
p3192
tp3193
a(S'601-346'
p3194
S'255'
p3195
tp3196
a(S'114-90'
p3197
S'24'
p3198
tp3199
a(S'176-609'
p3200
S'-433'
p3201
tp3202
a(S'907-201'
p3203
S'706'
p3204
tp3205
a(S'320-390'
p3206
S'-70'
p3207
tp3208
a(S'103-3'
p3209
S'100'
p3210
tp3211
a(S'561-186'
p3212
S'375'
p3213
tp3214
a(S'238-169'
p3215
S'69'
p3216
tp3217
a(S'707-436'
p3218
S'271'
p3219
tp3220
a(S'286-796'
p3221
S'-510'
p3222
tp3223
a(S'25-199'
p3224
S'-174'
p3225
tp3226
a(S'232-382'
p3227
S'-150'
p3228
tp3229
a(S'123-767'
p3230
S'-644'
p3231
tp3232
a(S'983-836'
p3233
S'147'
p3234
tp3235
a(S'581-883'
p3236
S'-302'
p3237
tp3238
a(S'216-68'
p3239
S'148'
p3240
tp3241
a(S'52-128'
p3242
S'-76'
p3243
tp3244
a(S'51-948'
p3245
S'-897'
p3246
tp3247
a(S'628-897'
p3248
S'-269'
p3249
tp3250
a(S'528-217'
p3251
S'311'
p3252
tp3253
a(S'942-660'
p3254
S'282'
p3255
tp3256
a(S'131-785'
p3257
S'-654'
p3258
tp3259
a(S'13-736'
p3260
S'-723'
p3261
tp3262
a(S'354-573'
p3263
S'-219'
p3264
tp3265
a(S'847-175'
p3266
S'672'
p3267
tp3268
a(S'356-667'
p3269
S'-311'
p3270
tp3271
a(S'287-956'
p3272
S'-669'
p3273
tp3274
a(S'274-497'
p3275
S'-223'
p3276
tp3277
a(S'387-676'
p3278
S'-289'
p3279
tp3280
a(S'677-343'
p3281
S'334'
p3282
tp3283
a(S'361-213'
p3284
S'148'
p3285
tp3286
a(S'198-838'
p3287
S'-640'
p3288
tp3289
a(S'426-328'
p3290
S'98'
p3291
tp3292
a(S'854-499'
p3293
S'355'
p3294
tp3295
a(S'363-40'
p3296
S'323'
p3297
tp3298
a(S'61-554'
p3299
S'-493'
p3300
tp3301
a(S'59-320'
p3302
S'-261'
p3303
tp3304
a(S'286-207'
p3305
S'79'
p3306
tp3307
a(S'385-870'
p3308
S'-485'
p3309
tp3310
a(S'26-474'
p3311
S'-448'
p3312
tp3313
a(S'394-954'
p3314
S'-560'
p3315
tp3316
a(S'689-834'
p3317
S'-145'
p3318
tp3319
a(S'376-293'
p3320
S'83'
p3321
tp3322
a(S'874-594'
p3323
S'280'
p3324
tp3325
a(S'391-262'
p3326
S'129'
p3327
tp3328
a(S'402-552'
p3329
S'-150'
p3330
tp3331
a(S'853-279'
p3332
S'574'
p3333
tp3334
a(S'501-271'
p3335
S'230'
p3336
tp3337
a(S'410-197'
p3338
S'213'
p3339
tp3340
a(S'931-692'
p3341
S'239'
p3342
tp3343
a(S'992-762'
p3344
S'230'
p3345
tp3346
a(S'772-337'
p3347
S'435'
p3348
tp3349
a(S'498-2'
p3350
S'496'
p3351
tp3352
a(S'134-894'
p3353
S'-760'
p3354
tp3355
a(S'744-571'
p3356
S'173'
p3357
tp3358
a(S'89-955'
p3359
S'-866'
p3360
tp3361
a(S'274-284'
p3362
S'-10'
p3363
tp3364
a(S'534-112'
p3365
S'422'
p3366
tp3367
a(S'31-202'
p3368
S'-171'
p3369
tp3370
a(S'723-282'
p3371
S'441'
p3372
tp3373
a(S'220-780'
p3374
S'-560'
p3375
tp3376
a(S'915-768'
p3377
S'147'
p3378
tp3379
a(S'979-571'
p3380
S'408'
p3381
tp3382
a(S'802-105'
p3383
S'697'
p3384
tp3385
a(S'887-789'
p3386
S'98'
p3387
tp3388
a(S'263-585'
p3389
S'-322'
p3390
tp3391
a(S'963-151'
p3392
S'812'
p3393
tp3394
a(S'769-824'
p3395
S'-55'
p3396
tp3397
a(S'299-37'
p3398
S'262'
p3399
tp3400
a(S'701-39'
p3401
S'662'
p3402
tp3403
a(S'403-829'
p3404
S'-426'
p3405
tp3406
a(S'213-116'
p3407
S'97'
p3408
tp3409
a(S'926-297'
p3410
S'629'
p3411
tp3412
a(S'761-240'
p3413
S'521'
p3414
tp3415
a(S'344-955'
p3416
S'-611'
p3417
tp3418
a(S'838-959'
p3419
S'-121'
p3420
tp3421
a(S'5-654'
p3422
S'-649'
p3423
tp3424
a(S'889-933'
p3425
S'-44'
p3426
tp3427
a(S'195-343'
p3428
S'-148'
p3429
tp3430
a(S'836-59'
p3431
S'777'
p3432
tp3433
a(S'559-186'
p3434
S'373'
p3435
tp3436
a(S'449-575'
p3437
S'-126'
p3438
tp3439
a(S'749-468'
p3440
S'281'
p3441
tp3442
a(S'450-579'
p3443
S'-129'
p3444
tp3445
a(S'900-77'
p3446
S'823'
p3447
tp3448
a(S'355-676'
p3449
S'-321'
p3450
tp3451
a(S'625-841'
p3452
S'-216'
p3453
tp3454
a(S'32-192'
p3455
S'-160'
p3456
tp3457
a(S'824-571'
p3458
S'253'
p3459
tp3460
a(S'792-209'
p3461
S'583'
p3462
tp3463
a(S'57-78'
p3464
S'-21'
p3465
tp3466
a(S'449-150'
p3467
S'299'
p3468
tp3469
a(S'875-949'
p3470
S'-74'
p3471
tp3472
a(S'836-219'
p3473
S'617'
p3474
tp3475
a(S'517-163'
p3476
S'354'
p3477
tp3478
a(S'137-744'
p3479
S'-607'
p3480
tp3481
a(S'674-77'
p3482
S'597'
p3483
tp3484
a(S'995-994'
p3485
S'1'
p3486
tp3487
a(S'303-939'
p3488
S'-636'
p3489
tp3490
a(S'717-625'
p3491
S'92'
p3492
tp3493
a(S'7-158'
p3494
S'-151'
p3495
tp3496
a(S'556-673'
p3497
S'-117'
p3498
tp3499
a(S'414-852'
p3500
S'-438'
p3501
tp3502
a(S'354-496'
p3503
S'-142'
p3504
tp3505
a(S'337-897'
p3506
S'-560'
p3507
tp3508
a(S'660-124'
p3509
S'536'
p3510
tp3511
a(S'626-800'
p3512
S'-174'
p3513
tp3514
a(S'45-365'
p3515
S'-320'
p3516
tp3517
a(S'80-942'
p3518
S'-862'
p3519
tp3520
a(S'393-615'
p3521
S'-222'
p3522
tp3523
a(S'579-941'
p3524
S'-362'
p3525
tp3526
a(S'523-614'
p3527
S'-91'
p3528
tp3529
a(S'389-711'
p3530
S'-322'
p3531
tp3532
a(S'444-344'
p3533
S'100'
p3534
tp3535
a(S'108-745'
p3536
S'-637'
p3537
tp3538
a(S'129-697'
p3539
S'-568'
p3540
tp3541
a(S'434-685'
p3542
S'-251'
p3543
tp3544
a(S'701-369'
p3545
S'332'
p3546
tp3547
a(S'791-577'
p3548
S'214'
p3549
tp3550
a(S'331-533'
p3551
S'-202'
p3552
tp3553
a(S'420-469'
p3554
S'-49'
p3555
tp3556
a(S'514-152'
p3557
S'362'
p3558
tp3559
a(S'847-704'
p3560
S'143'
p3561
tp3562
a(S'158-147'
p3563
S'11'
p3564
tp3565
a(S'347-907'
p3566
S'-560'
p3567
tp3568
a(S'925-225'
p3569
S'700'
p3570
tp3571
a(S'177-905'
p3572
S'-728'
p3573
tp3574
a(S'882-145'
p3575
S'737'
p3576
tp3577
a(S'1-525'
p3578
S'-524'
p3579
tp3580
a(S'799-524'
p3581
S'275'
p3582
tp3583
a(S'688-110'
p3584
S'578'
p3585
tp3586
a(S'66-535'
p3587
S'-469'
p3588
tp3589
a(S'387-966'
p3590
S'-579'
p3591
tp3592
a(S'740-4'
p3593
S'736'
p3594
tp3595
a(S'419-86'
p3596
S'333'
p3597
tp3598
a(S'196-832'
p3599
S'-636'
p3600
tp3601
a(S'484-175'
p3602
S'309'
p3603
tp3604
a(S'463-180'
p3605
S'283'
p3606
tp3607
a(S'574-521'
p3608
S'53'
p3609
tp3610
a(S'54-470'
p3611
S'-416'
p3612
tp3613
a(S'997-835'
p3614
S'162'
p3615
tp3616
a(S'699-581'
p3617
S'118'
p3618
tp3619
a(S'683-363'
p3620
S'320'
p3621
tp3622
a(S'537-945'
p3623
S'-408'
p3624
tp3625
a(S'59-458'
p3626
S'-399'
p3627
tp3628
a(S'966-682'
p3629
S'284'
p3630
tp3631
a(S'442-512'
p3632
S'-70'
p3633
tp3634
a(S'106-55'
p3635
S'51'
p3636
tp3637
a(S'50-458'
p3638
S'-408'
p3639
tp3640
a(S'351-242'
p3641
S'109'
p3642
tp3643
a(S'703-586'
p3644
S'117'
p3645
tp3646
a(S'17-861'
p3647
S'-844'
p3648
tp3649
a(S'276-736'
p3650
S'-460'
p3651
tp3652
a(S'500-304'
p3653
S'196'
p3654
tp3655
a(S'685-699'
p3656
S'-14'
p3657
tp3658
a(S'376-690'
p3659
S'-314'
p3660
tp3661
a(S'326-138'
p3662
S'188'
p3663
tp3664
a(S'766-250'
p3665
S'516'
p3666
tp3667
a(S'511-959'
p3668
S'-448'
p3669
tp3670
a(S'44-432'
p3671
S'-388'
p3672
tp3673
a(S'905-931'
p3674
S'-26'
p3675
tp3676
a(S'867-646'
p3677
S'221'
p3678
tp3679
a(S'267-316'
p3680
S'-49'
p3681
tp3682
a(S'751-560'
p3683
S'191'
p3684
tp3685
a(S'172-275'
p3686
S'-103'
p3687
tp3688
a(S'603-763'
p3689
S'-160'
p3690
tp3691
a(S'388-930'
p3692
S'-542'
p3693
tp3694
a(S'924-646'
p3695
S'278'
p3696
tp3697
a(S'375-222'
p3698
S'153'
p3699
tp3700
a(S'937-868'
p3701
S'69'
p3702
tp3703
a(S'20-533'
p3704
S'-513'
p3705
tp3706
a(S'350-228'
p3707
S'122'
p3708
tp3709
a(S'286-682'
p3710
S'-396'
p3711
tp3712
a(S'665-79'
p3713
S'586'
p3714
tp3715
a(S'51-582'
p3716
S'-531'
p3717
tp3718
a(S'519-944'
p3719
S'-425'
p3720
tp3721
a(S'368-909'
p3722
S'-541'
p3723
tp3724
a(S'324-822'
p3725
S'-498'
p3726
tp3727
a(S'215-896'
p3728
S'-681'
p3729
tp3730
a(S'976-542'
p3731
S'434'
p3732
tp3733
a(S'705-428'
p3734
S'277'
p3735
tp3736
a(S'578-295'
p3737
S'283'
p3738
tp3739
a(S'216-432'
p3740
S'-216'
p3741
tp3742
a(S'886-379'
p3743
S'507'
p3744
tp3745
a(S'14-348'
p3746
S'-334'
p3747
tp3748
a(S'867-650'
p3749
S'217'
p3750
tp3751
a(S'364-650'
p3752
S'-286'
p3753
tp3754
a(S'165-81'
p3755
S'84'
p3756
tp3757
a(S'210-11'
p3758
S'199'
p3759
tp3760
a(S'162-805'
p3761
S'-643'
p3762
tp3763
a(S'672-444'
p3764
S'228'
p3765
tp3766
a(S'538-576'
p3767
S'-38'
p3768
tp3769
a(S'428-996'
p3770
S'-568'
p3771
tp3772
a(S'330-765'
p3773
S'-435'
p3774
tp3775
a(S'986-225'
p3776
S'761'
p3777
tp3778
a(S'286-56'
p3779
S'230'
p3780
tp3781
a(S'160-982'
p3782
S'-822'
p3783
tp3784
a(S'499-990'
p3785
S'-491'
p3786
tp3787
a(S'998-617'
p3788
S'381'
p3789
tp3790
a(S'948-914'
p3791
S'34'
p3792
tp3793
a(S'505-338'
p3794
S'167'
p3795
tp3796
a(S'225-575'
p3797
S'-350'
p3798
tp3799
a(S'162-768'
p3800
S'-606'
p3801
tp3802
a(S'888-626'
p3803
S'262'
p3804
tp3805
a(S'637-868'
p3806
S'-231'
p3807
tp3808
a(S'14-833'
p3809
S'-819'
p3810
tp3811
a(S'576-200'
p3812
S'376'
p3813
tp3814
a(S'258-146'
p3815
S'112'
p3816
tp3817
a(S'483-653'
p3818
S'-170'
p3819
tp3820
a(S'947-696'
p3821
S'251'
p3822
tp3823
a(S'536-262'
p3824
S'274'
p3825
tp3826
a(S'538-201'
p3827
S'337'
p3828
tp3829
a(S'723-521'
p3830
S'202'
p3831
tp3832
a(S'345-912'
p3833
S'-567'
p3834
tp3835
a(S'538-777'
p3836
S'-239'
p3837
tp3838
a(S'885-373'
p3839
S'512'
p3840
tp3841
a(S'574-236'
p3842
S'338'
p3843
tp3844
a(S'256-300'
p3845
S'-44'
p3846
tp3847
a(S'909-917'
p3848
S'-8'
p3849
tp3850
a(S'907-655'
p3851
S'252'
p3852
tp3853
a(S'204-352'
p3854
S'-148'
p3855
tp3856
a(S'186-488'
p3857
S'-302'
p3858
tp3859
a(S'528-131'
p3860
S'397'
p3861
tp3862
a(S'69-185'
p3863
S'-116'
p3864
tp3865
a(S'558-146'
p3866
S'412'
p3867
tp3868
a(S'757-106'
p3869
S'651'
p3870
tp3871
a(S'20-667'
p3872
S'-647'
p3873
tp3874
a(S'342-439'
p3875
S'-97'
p3876
tp3877
a(S'348-981'
p3878
S'-633'
p3879
tp3880
a(S'595-982'
p3881
S'-387'
p3882
tp3883
a(S'585-202'
p3884
S'383'
p3885
tp3886
a(S'650-936'
p3887
S'-286'
p3888
tp3889
a(S'482-132'
p3890
S'350'
p3891
tp3892
a(S'628-75'
p3893
S'553'
p3894
tp3895
a(S'87-573'
p3896
S'-486'
p3897
tp3898
a(S'349-880'
p3899
S'-531'
p3900
tp3901
a(S'997-437'
p3902
S'560'
p3903
tp3904
a(S'469-56'
p3905
S'413'
p3906
tp3907
a(S'662-487'
p3908
S'175'
p3909
tp3910
a(S'316-150'
p3911
S'166'
p3912
tp3913
a(S'542-622'
p3914
S'-80'
p3915
tp3916
a(S'156-11'
p3917
S'145'
p3918
tp3919
a(S'932-936'
p3920
S'-4'
p3921
tp3922
a(S'707-631'
p3923
S'76'
p3924
tp3925
a(S'912-401'
p3926
S'511'
p3927
tp3928
a(S'844-114'
p3929
S'730'
p3930
tp3931
a(S'834-355'
p3932
S'479'
p3933
tp3934
a(S'823-878'
p3935
S'-55'
p3936
tp3937
a(S'282-948'
p3938
S'-666'
p3939
tp3940
a(S'871-954'
p3941
S'-83'
p3942
tp3943
a(S'688-897'
p3944
S'-209'
p3945
tp3946
a(S'227-569'
p3947
S'-342'
p3948
tp3949
a(S'734-953'
p3950
S'-219'
p3951
tp3952
a(S'868-662'
p3953
S'206'
p3954
tp3955
a(S'27-356'
p3956
S'-329'
p3957
tp3958
a(S'770-232'
p3959
S'538'
p3960
tp3961
a(S'325-3'
p3962
S'322'
p3963
tp3964
a(S'214-671'
p3965
S'-457'
p3966
tp3967
a(S'520-220'
p3968
S'300'
p3969
tp3970
a(S'403-432'
p3971
S'-29'
p3972
tp3973
a(S'909-456'
p3974
S'453'
p3975
tp3976
a(S'418-610'
p3977
S'-192'
p3978
tp3979
a(S'963-265'
p3980
S'698'
p3981
tp3982
a(S'964-729'
p3983
S'235'
p3984
tp3985
a(S'30-973'
p3986
S'-943'
p3987
tp3988
a(S'546-62'
p3989
S'484'
p3990
tp3991
a(S'685-674'
p3992
S'11'
p3993
tp3994
a(S'567-543'
p3995
S'24'
p3996
tp3997
a(S'578-847'
p3998
S'-269'
p3999
tp4000
a(S'126-611'
p4001
S'-485'
p4002
tp4003
a(S'414-513'
p4004
S'-99'
p4005
tp4006
a(S'497-247'
p4007
S'250'
p4008
tp4009
a(S'690-275'
p4010
S'415'
p4011
tp4012
a(S'526-184'
p4013
S'342'
p4014
tp4015
a(S'376-790'
p4016
S'-414'
p4017
tp4018
a(S'819-739'
p4019
S'80'
p4020
tp4021
a(S'699-568'
p4022
S'131'
p4023
tp4024
a(S'707-463'
p4025
S'244'
p4026
tp4027
a(S'589-950'
p4028
S'-361'
p4029
tp4030
a(S'819-735'
p4031
S'84'
p4032
tp4033
a(S'601-746'
p4034
S'-145'
p4035
tp4036
a(S'263-203'
p4037
S'60'
p4038
tp4039
a(S'429-793'
p4040
S'-364'
p4041
tp4042
a(S'857-591'
p4043
S'266'
p4044
tp4045
a(S'943-530'
p4046
S'413'
p4047
tp4048
a(S'519-952'
p4049
S'-433'
p4050
tp4051
a(S'288-171'
p4052
S'117'
p4053
tp4054
a(S'950-434'
p4055
S'516'
p4056
tp4057
a(S'910-234'
p4058
S'676'
p4059
tp4060
a(S'517-911'
p4061
S'-394'
p4062
tp4063
a(S'131-101'
p4064
S'30'
p4065
tp4066
a(S'209-46'
p4067
S'163'
p4068
tp4069
a(S'568-212'
p4070
S'356'
p4071
tp4072
a(S'649-931'
p4073
S'-282'
p4074
tp4075
a(S'850-691'
p4076
S'159'
p4077
tp4078
a(S'194-51'
p4079
S'143'
p4080
tp4081
a(S'213-627'
p4082
S'-414'
p4083
tp4084
a(S'735-411'
p4085
S'324'
p4086
tp4087
a(S'661-11'
p4088
S'650'
p4089
tp4090
a(S'649-853'
p4091
S'-204'
p4092
tp4093
a(S'967-933'
p4094
S'34'
p4095
tp4096
a(S'307-964'
p4097
S'-657'
p4098
tp4099
a(S'119-557'
p4100
S'-438'
p4101
tp4102
a(S'436-663'
p4103
S'-227'
p4104
tp4105
a(S'0-226'
p4106
S'-226'
p4107
tp4108
a(S'608-19'
p4109
S'589'
p4110
tp4111
a(S'878-748'
p4112
S'130'
p4113
tp4114
a(S'553-842'
p4115
S'-289'
p4116
tp4117
a(S'870-121'
p4118
S'749'
p4119
tp4120
a(S'362-49'
p4121
S'313'
p4122
tp4123
a(S'439-433'
p4124
S'6'
p4125
tp4126
a(S'139-275'
p4127
S'-136'
p4128
tp4129
a(S'327-77'
p4130
S'250'
p4131
tp4132
a(S'836-517'
p4133
S'319'
p4134
tp4135
a(S'285-991'
p4136
S'-706'
p4137
tp4138
a(S'283-807'
p4139
S'-524'
p4140
tp4141
a(S'247-876'
p4142
S'-629'
p4143
tp4144
a(S'229-82'
p4145
S'147'
p4146
tp4147
a(S'936-363'
p4148
S'573'
p4149
tp4150
a(S'97-118'
p4151
S'-21'
p4152
tp4153
a(S'183-78'
p4154
S'105'
p4155
tp4156
a(S'415-60'
p4157
S'355'
p4158
tp4159
a(S'561-25'
p4160
S'536'
p4161
tp4162
a(S'184-363'
p4163
S'-179'
p4164
tp4165
a(S'973-136'
p4166
S'837'
p4167
tp4168
a(S'287-92'
p4169
S'195'
p4170
tp4171
a(S'525-476'
p4172
S'49'
p4173
tp4174
a(S'0-18'
p4175
S'-18'
p4176
tp4177
a(S'4-441'
p4178
S'-437'
p4179
tp4180
a(S'488-787'
p4181
S'-299'
p4182
tp4183
a(S'331-62'
p4184
S'269'
p4185
tp4186
a(S'721-846'
p4187
S'-125'
p4188
tp4189
a(S'743-767'
p4190
S'-24'
p4191
tp4192
a(S'612-751'
p4193
S'-139'
p4194
tp4195
a(S'514-150'
p4196
S'364'
p4197
tp4198
a(S'222-965'
p4199
S'-743'
p4200
tp4201
a(S'801-141'
p4202
S'660'
p4203
tp4204
a(S'891-513'
p4205
S'378'
p4206
tp4207
a(S'711-829'
p4208
S'-118'
p4209
tp4210
a(S'171-811'
p4211
S'-640'
p4212
tp4213
a(S'888-813'
p4214
S'75'
p4215
tp4216
a(S'831-763'
p4217
S'68'
p4218
tp4219
a(S'647-261'
p4220
S'386'
p4221
tp4222
a(S'796-168'
p4223
S'628'
p4224
tp4225
a(S'441-230'
p4226
S'211'
p4227
tp4228
a(S'357-876'
p4229
S'-519'
p4230
tp4231
a(S'689-337'
p4232
S'352'
p4233
tp4234
a(S'824-979'
p4235
S'-155'
p4236
tp4237
a(S'299-489'
p4238
S'-190'
p4239
tp4240
a(S'756-824'
p4241
S'-68'
p4242
tp4243
a(S'952-370'
p4244
S'582'
p4245
tp4246
a(S'225-501'
p4247
S'-276'
p4248
tp4249
a(S'547-493'
p4250
S'54'
p4251
tp4252
a(S'623-254'
p4253
S'369'
p4254
tp4255
a(S'570-446'
p4256
S'124'
p4257
tp4258
a(S'665-125'
p4259
S'540'
p4260
tp4261
a(S'553-448'
p4262
S'105'
p4263
tp4264
a(S'799-275'
p4265
S'524'
p4266
tp4267
a(S'736-480'
p4268
S'256'
p4269
tp4270
a(S'546-975'
p4271
S'-429'
p4272
tp4273
a(S'950-629'
p4274
S'321'
p4275
tp4276
a(S'748-205'
p4277
S'543'
p4278
tp4279
a(S'420-630'
p4280
S'-210'
p4281
tp4282
a(S'273-525'
p4283
S'-252'
p4284
tp4285
a(S'678-141'
p4286
S'537'
p4287
tp4288
a(S'13-406'
p4289
S'-393'
p4290
tp4291
a(S'406-756'
p4292
S'-350'
p4293
tp4294
a(S'370-215'
p4295
S'155'
p4296
tp4297
a(S'911-308'
p4298
S'603'
p4299
tp4300
a(S'827-908'
p4301
S'-81'
p4302
tp4303
a(S'494-483'
p4304
S'11'
p4305
tp4306
a(S'897-805'
p4307
S'92'
p4308
tp4309
a(S'402-500'
p4310
S'-98'
p4311
tp4312
a(S'650-305'
p4313
S'345'
p4314
tp4315
a(S'10-889'
p4316
S'-879'
p4317
tp4318
a(S'859-874'
p4319
S'-15'
p4320
tp4321
a(S'46-184'
p4322
S'-138'
p4323
tp4324
a(S'566-678'
p4325
S'-112'
p4326
tp4327
a(S'600-280'
p4328
S'320'
p4329
tp4330
a(S'7-46'
p4331
S'-39'
p4332
tp4333
a(S'915-710'
p4334
S'205'
p4335
tp4336
a(S'524-62'
p4337
S'462'
p4338
tp4339
a(S'314-808'
p4340
S'-494'
p4341
tp4342
a(S'772-671'
p4343
S'101'
p4344
tp4345
a(S'670-204'
p4346
S'466'
p4347
tp4348
a(S'9-610'
p4349
S'-601'
p4350
tp4351
a(S'335-90'
p4352
S'245'
p4353
tp4354
a(S'582-372'
p4355
S'210'
p4356
tp4357
a(S'395-366'
p4358
S'29'
p4359
tp4360
a(S'126-341'
p4361
S'-215'
p4362
tp4363
a(S'359-548'
p4364
S'-189'
p4365
tp4366
a(S'223-384'
p4367
S'-161'
p4368
tp4369
a(S'453-827'
p4370
S'-374'
p4371
tp4372
a(S'828-338'
p4373
S'490'
p4374
tp4375
a(S'53-464'
p4376
S'-411'
p4377
tp4378
a(S'981-539'
p4379
S'442'
p4380
tp4381
a(S'219-615'
p4382
S'-396'
p4383
tp4384
a(S'425-655'
p4385
S'-230'
p4386
tp4387
a(S'962-535'
p4388
S'427'
p4389
tp4390
a(S'482-450'
p4391
S'32'
p4392
tp4393
a(S'811-624'
p4394
S'187'
p4395
tp4396
a(S'951-882'
p4397
S'69'
p4398
tp4399
a(S'189-105'
p4400
S'84'
p4401
tp4402
a(S'244-771'
p4403
S'-527'
p4404
tp4405
a(S'425-621'
p4406
S'-196'
p4407
tp4408
a(S'919-174'
p4409
S'745'
p4410
tp4411
a(S'88-874'
p4412
S'-786'
p4413
tp4414
a(S'263-687'
p4415
S'-424'
p4416
tp4417
a(S'403-596'
p4418
S'-193'
p4419
tp4420
a(S'651-14'
p4421
S'637'
p4422
tp4423
a(S'370-766'
p4424
S'-396'
p4425
tp4426
a(S'656-577'
p4427
S'79'
p4428
tp4429
a(S'540-768'
p4430
S'-228'
p4431
tp4432
a(S'226-233'
p4433
S'-7'
p4434
tp4435
a(S'886-563'
p4436
S'323'
p4437
tp4438
a(S'811-334'
p4439
S'477'
p4440
tp4441
a(S'688-672'
p4442
S'16'
p4443
tp4444
a(S'482-123'
p4445
S'359'
p4446
tp4447
a(S'883-770'
p4448
S'113'
p4449
tp4450
a(S'848-943'
p4451
S'-95'
p4452
tp4453
a(S'885-703'
p4454
S'182'
p4455
tp4456
a(S'662-214'
p4457
S'448'
p4458
tp4459
a(S'364-876'
p4460
S'-512'
p4461
tp4462
a(S'266-997'
p4463
S'-731'
p4464
tp4465
a(S'706-52'
p4466
S'654'
p4467
tp4468
a(S'878-863'
p4469
S'15'
p4470
tp4471
a(S'334-781'
p4472
S'-447'
p4473
tp4474
a(S'571-246'
p4475
S'325'
p4476
tp4477
a(S'524-449'
p4478
S'75'
p4479
tp4480
a(S'122-776'
p4481
S'-654'
p4482
tp4483
a(S'779-727'
p4484
S'52'
p4485
tp4486
a(S'120-3'
p4487
S'117'
p4488
tp4489
a(S'962-774'
p4490
S'188'
p4491
tp4492
a(S'526-455'
p4493
S'71'
p4494
tp4495
a(S'881-928'
p4496
S'-47'
p4497
tp4498
a(S'127-329'
p4499
S'-202'
p4500
tp4501
a(S'16-862'
p4502
S'-846'
p4503
tp4504
a(S'59-544'
p4505
S'-485'
p4506
tp4507
a(S'344-19'
p4508
S'325'
p4509
tp4510
a(S'467-65'
p4511
S'402'
p4512
tp4513
a(S'227-60'
p4514
S'167'
p4515
tp4516
a(S'958-98'
p4517
S'860'
p4518
tp4519
a(S'333-27'
p4520
S'306'
p4521
tp4522
a(S'530-581'
p4523
S'-51'
p4524
tp4525
a(S'928-272'
p4526
S'656'
p4527
tp4528
a(S'582-126'
p4529
S'456'
p4530
tp4531
a(S'254-810'
p4532
S'-556'
p4533
tp4534
a(S'552-488'
p4535
S'64'
p4536
tp4537
a(S'934-85'
p4538
S'849'
p4539
tp4540
a(S'525-882'
p4541
S'-357'
p4542
tp4543
a(S'905-444'
p4544
S'461'
p4545
tp4546
a(S'671-632'
p4547
S'39'
p4548
tp4549
a(S'488-446'
p4550
S'42'
p4551
tp4552
a(S'246-184'
p4553
S'62'
p4554
tp4555
a(S'879-399'
p4556
S'480'
p4557
tp4558
a(S'537-553'
p4559
S'-16'
p4560
tp4561
a(S'989-547'
p4562
S'442'
p4563
tp4564
a(S'790-70'
p4565
S'720'
p4566
tp4567
a(S'627-883'
p4568
S'-256'
p4569
tp4570
a(S'733-381'
p4571
S'352'
p4572
tp4573
a(S'206-387'
p4574
S'-181'
p4575
tp4576
a(S'959-634'
p4577
S'325'
p4578
tp4579
a(S'26-596'
p4580
S'-570'
p4581
tp4582
a(S'978-117'
p4583
S'861'
p4584
tp4585
a(S'29-609'
p4586
S'-580'
p4587
tp4588
a(S'265-136'
p4589
S'129'
p4590
tp4591
a(S'155-711'
p4592
S'-556'
p4593
tp4594
a(S'446-313'
p4595
S'133'
p4596
tp4597
a(S'280-888'
p4598
S'-608'
p4599
tp4600
a(S'570-148'
p4601
S'422'
p4602
tp4603
a(S'708-640'
p4604
S'68'
p4605
tp4606
a(S'427-950'
p4607
S'-523'
p4608
tp4609
a(S'362-320'
p4610
S'42'
p4611
tp4612
a(S'465-736'
p4613
S'-271'
p4614
tp4615
a(S'990-965'
p4616
S'25'
p4617
tp4618
a(S'936-302'
p4619
S'634'
p4620
tp4621
a(S'879-554'
p4622
S'325'
p4623
tp4624
a(S'269-750'
p4625
S'-481'
p4626
tp4627
a(S'469-156'
p4628
S'313'
p4629
tp4630
a(S'194-623'
p4631
S'-429'
p4632
tp4633
a(S'912-425'
p4634
S'487'
p4635
tp4636
a(S'325-478'
p4637
S'-153'
p4638
tp4639
a(S'681-856'
p4640
S'-175'
p4641
tp4642
a(S'772-680'
p4643
S'92'
p4644
tp4645
a(S'530-744'
p4646
S'-214'
p4647
tp4648
a(S'387-970'
p4649
S'-583'
p4650
tp4651
a(S'721-141'
p4652
S'580'
p4653
tp4654
a(S'51-140'
p4655
S'-89'
p4656
tp4657
a(S'383-363'
p4658
S'20'
p4659
tp4660
a(S'239-692'
p4661
S'-453'
p4662
tp4663
a(S'24-891'
p4664
S'-867'
p4665
tp4666
a(S'91-581'
p4667
S'-490'
p4668
tp4669
a(S'521-242'
p4670
S'279'
p4671
tp4672
a(S'726-789'
p4673
S'-63'
p4674
tp4675
a(S'829-621'
p4676
S'208'
p4677
tp4678
a(S'817-330'
p4679
S'487'
p4680
tp4681
a(S'50-233'
p4682
S'-183'
p4683
tp4684
a(S'517-879'
p4685
S'-362'
p4686
tp4687
a(S'716-870'
p4688
S'-154'
p4689
tp4690
a(S'120-782'
p4691
S'-662'
p4692
tp4693
a(S'925-258'
p4694
S'667'
p4695
tp4696
a(S'749-736'
p4697
S'13'
p4698
tp4699
a(S'373-844'
p4700
S'-471'
p4701
tp4702
a(S'91-742'
p4703
S'-651'
p4704
tp4705
a(S'769-54'
p4706
S'715'
p4707
tp4708
a(S'287-27'
p4709
S'260'
p4710
tp4711
a(S'131-144'
p4712
S'-13'
p4713
tp4714
a(S'404-871'
p4715
S'-467'
p4716
tp4717
a(S'456-133'
p4718
S'323'
p4719
tp4720
a(S'74-201'
p4721
S'-127'
p4722
tp4723
a(S'120-347'
p4724
S'-227'
p4725
tp4726
a(S'337-117'
p4727
S'220'
p4728
tp4729
a(S'898-633'
p4730
S'265'
p4731
tp4732
a(S'524-125'
p4733
S'399'
p4734
tp4735
a(S'123-214'
p4736
S'-91'
p4737
tp4738
a(S'198-699'
p4739
S'-501'
p4740
tp4741
a(S'819-388'
p4742
S'431'
p4743
tp4744
a(S'814-689'
p4745
S'125'
p4746
tp4747
a(S'253-504'
p4748
S'-251'
p4749
tp4750
a(S'687-998'
p4751
S'-311'
p4752
tp4753
a(S'187-877'
p4754
S'-690'
p4755
tp4756
a(S'495-898'
p4757
S'-403'
p4758
tp4759
a(S'765-516'
p4760
S'249'
p4761
tp4762
a(S'495-112'
p4763
S'383'
p4764
tp4765
a(S'359-252'
p4766
S'107'
p4767
tp4768
a(S'569-92'
p4769
S'477'
p4770
tp4771
a(S'730-973'
p4772
S'-243'
p4773
tp4774
a(S'101-0'
p4775
S'101'
p4776
tp4777
a(S'326-105'
p4778
S'221'
p4779
tp4780
a(S'116-387'
p4781
S'-271'
p4782
tp4783
a(S'187-434'
p4784
S'-247'
p4785
tp4786
a(S'447-37'
p4787
S'410'
p4788
tp4789
a(S'113-420'
p4790
S'-307'
p4791
tp4792
a(S'857-700'
p4793
S'157'
p4794
tp4795
a(S'686-293'
p4796
S'393'
p4797
tp4798
a(S'305-195'
p4799
S'110'
p4800
tp4801
a(S'397-145'
p4802
S'252'
p4803
tp4804
a(S'261-844'
p4805
S'-583'
p4806
tp4807
a(S'432-791'
p4808
S'-359'
p4809
tp4810
a(S'705-995'
p4811
S'-290'
p4812
tp4813
a(S'598-79'
p4814
S'519'
p4815
tp4816
a(S'813-165'
p4817
S'648'
p4818
tp4819
a(S'514-992'
p4820
S'-478'
p4821
tp4822
a(S'140-354'
p4823
S'-214'
p4824
tp4825
a(S'478-313'
p4826
S'165'
p4827
tp4828
a(S'258-573'
p4829
S'-315'
p4830
tp4831
a(S'709-407'
p4832
S'302'
p4833
tp4834
a(S'255-902'
p4835
S'-647'
p4836
tp4837
a(S'408-502'
p4838
S'-94'
p4839
tp4840
a(S'989-404'
p4841
S'585'
p4842
tp4843
a(S'520-501'
p4844
S'19'
p4845
tp4846
a(S'590-237'
p4847
S'353'
p4848
tp4849
a(S'733-59'
p4850
S'674'
p4851
tp4852
a(S'569-449'
p4853
S'120'
p4854
tp4855
a(S'549-466'
p4856
S'83'
p4857
tp4858
a(S'4-323'
p4859
S'-319'
p4860
tp4861
a(S'799-912'
p4862
S'-113'
p4863
tp4864
a(S'246-538'
p4865
S'-292'
p4866
tp4867
a(S'44-899'
p4868
S'-855'
p4869
tp4870
a(S'542-251'
p4871
S'291'
p4872
tp4873
a(S'664-511'
p4874
S'153'
p4875
tp4876
a(S'207-716'
p4877
S'-509'
p4878
tp4879
a(S'475-244'
p4880
S'231'
p4881
tp4882
a(S'311-45'
p4883
S'266'
p4884
tp4885
a(S'899-919'
p4886
S'-20'
p4887
tp4888
a(S'231-286'
p4889
S'-55'
p4890
tp4891
a(S'114-520'
p4892
S'-406'
p4893
tp4894
a(S'455-903'
p4895
S'-448'
p4896
tp4897
a(S'142-410'
p4898
S'-268'
p4899
tp4900
a(S'244-837'
p4901
S'-593'
p4902
tp4903
a(S'934-405'
p4904
S'529'
p4905
tp4906
a(S'171-42'
p4907
S'129'
p4908
tp4909
a(S'535-221'
p4910
S'314'
p4911
tp4912
a(S'776-233'
p4913
S'543'
p4914
tp4915
a(S'970-494'
p4916
S'476'
p4917
tp4918
a(S'743-631'
p4919
S'112'
p4920
tp4921
a(S'929-306'
p4922
S'623'
p4923
tp4924
a(S'188-573'
p4925
S'-385'
p4926
tp4927
a(S'431-876'
p4928
S'-445'
p4929
tp4930
a(S'633-29'
p4931
S'604'
p4932
tp4933
a(S'61-699'
p4934
S'-638'
p4935
tp4936
a(S'724-316'
p4937
S'408'
p4938
tp4939
a(S'412-392'
p4940
S'20'
p4941
tp4942
a(S'996-995'
p4943
g3486
tp4944
a(S'321-488'
p4945
S'-167'
p4946
tp4947
a(S'595-133'
p4948
S'462'
p4949
tp4950
a(S'375-389'
p4951
S'-14'
p4952
tp4953
a(S'297-79'
p4954
S'218'
p4955
tp4956
a(S'425-651'
p4957
S'-226'
p4958
tp4959
a(S'357-795'
p4960
S'-438'
p4961
tp4962
a(S'179-339'
p4963
S'-160'
p4964
tp4965
a(S'720-934'
p4966
S'-214'
p4967
tp4968
a(S'775-881'
p4969
S'-106'
p4970
tp4971
a(S'763-693'
p4972
S'70'
p4973
tp4974
a(S'98-11'
p4975
S'87'
p4976
tp4977
a(S'857-498'
p4978
S'359'
p4979
tp4980
a(S'381-735'
p4981
S'-354'
p4982
tp4983
a(S'324-834'
p4984
S'-510'
p4985
tp4986
a(S'698-732'
p4987
S'-34'
p4988
tp4989
a(S'880-386'
p4990
S'494'
p4991
tp4992
a(S'485-899'
p4993
S'-414'
p4994
tp4995
a(S'713-505'
p4996
S'208'
p4997
tp4998
a(S'895-225'
p4999
S'670'
p5000
tp5001
a(S'899-806'
p5002
S'93'
p5003
tp5004
a(S'541-579'
p5005
S'-38'
p5006
tp5007
a(S'395-156'
p5008
S'239'
p5009
tp5010
a(S'721-800'
p5011
S'-79'
p5012
tp5013
a(S'736-584'
p5014
S'152'
p5015
tp5016
a(S'898-18'
p5017
S'880'
p5018
tp5019
a(S'931-404'
p5020
S'527'
p5021
tp5022
a(S'579-312'
p5023
S'267'
p5024
tp5025
a(S'277-354'
p5026
S'-77'
p5027
tp5028
a(S'937-322'
p5029
S'615'
p5030
tp5031
a(S'56-922'
p5032
S'-866'
p5033
tp5034
a(S'371-466'
p5035
S'-95'
p5036
tp5037
a(S'600-716'
p5038
S'-116'
p5039
tp5040
a(S'376-527'
p5041
S'-151'
p5042
tp5043
a(S'731-194'
p5044
S'537'
p5045
tp5046
a(S'918-884'
p5047
S'34'
p5048
tp5049
a(S'363-250'
p5050
S'113'
p5051
tp5052
a(S'147-851'
p5053
S'-704'
p5054
tp5055
a(S'158-562'
p5056
S'-404'
p5057
tp5058
a(S'623-479'
p5059
S'144'
p5060
tp5061
a(S'472-109'
p5062
S'363'
p5063
tp5064
a(S'101-547'
p5065
S'-446'
p5066
tp5067
a(S'364-734'
p5068
S'-370'
p5069
tp5070
a(S'428-588'
p5071
S'-160'
p5072
tp5073
a(S'737-609'
p5074
S'128'
p5075
tp5076
a(S'3-320'
p5077
S'-317'
p5078
tp5079
a(S'211-31'
p5080
S'180'
p5081
tp5082
a(S'351-80'
p5083
S'271'
p5084
tp5085
a(S'846-116'
p5086
S'730'
p5087
tp5088
a(S'566-590'
p5089
S'-24'
p5090
tp5091
a(S'555-710'
p5092
S'-155'
p5093
tp5094
a(S'915-114'
p5095
S'801'
p5096
tp5097
a(S'664-296'
p5098
S'368'
p5099
tp5100
a(S'722-579'
p5101
S'143'
p5102
tp5103
a(S'433-9'
p5104
S'424'
p5105
tp5106
a(S'711-365'
p5107
S'346'
p5108
tp5109
a(S'849-442'
p5110
S'407'
p5111
tp5112
a(S'558-797'
p5113
S'-239'
p5114
tp5115
a(S'441-540'
p5116
S'-99'
p5117
tp5118
a(S'698-352'
p5119
S'346'
p5120
tp5121
a(S'405-970'
p5122
S'-565'
p5123
tp5124
a(S'691-10'
p5125
S'681'
p5126
tp5127
a(S'736-415'
p5128
S'321'
p5129
tp5130
a(S'978-469'
p5131
S'509'
p5132
tp5133
a(S'605-336'
p5134
S'269'
p5135
tp5136
a(S'622-113'
p5137
S'509'
p5138
tp5139
a(S'461-313'
p5140
S'148'
p5141
tp5142
a(S'359-310'
p5143
S'49'
p5144
tp5145
a(S'221-769'
p5146
S'-548'
p5147
tp5148
a(S'734-721'
p5149
S'13'
p5150
tp5151
a(S'339-497'
p5152
S'-158'
p5153
tp5154
a(S'105-69'
p5155
S'36'
p5156
tp5157
a(S'713-434'
p5158
S'279'
p5159
tp5160
a(S'846-563'
p5161
S'283'
p5162
tp5163
a(S'724-674'
p5164
S'50'
p5165
tp5166
a(S'903-739'
p5167
S'164'
p5168
tp5169
a(S'529-490'
p5170
S'39'
p5171
tp5172
a(S'513-585'
p5173
S'-72'
p5174
tp5175
a(S'584-557'
p5176
S'27'
p5177
tp5178
a(S'681-655'
p5179
S'26'
p5180
tp5181
a(S'672-586'
p5182
S'86'
p5183
tp5184
a(S'481-58'
p5185
S'423'
p5186
tp5187
a(S'327-896'
p5188
S'-569'
p5189
tp5190
a(S'856-8'
p5191
S'848'
p5192
tp5193
a(S'837-258'
p5194
S'579'
p5195
tp5196
a(S'155-447'
p5197
S'-292'
p5198
tp5199
a(S'241-924'
p5200
S'-683'
p5201
tp5202
a(S'898-715'
p5203
S'183'
p5204
tp5205
a(S'940-315'
p5206
S'625'
p5207
tp5208
a(S'717-580'
p5209
S'137'
p5210
tp5211
a(S'611-934'
p5212
S'-323'
p5213
tp5214
a(S'963-101'
p5215
S'862'
p5216
tp5217
a(S'317-950'
p5218
S'-633'
p5219
tp5220
a(S'854-38'
p5221
S'816'
p5222
tp5223
a(S'178-783'
p5224
S'-605'
p5225
tp5226
a(S'239-64'
p5227
S'175'
p5228
tp5229
a(S'584-591'
p5230
S'-7'
p5231
tp5232
a(S'997-139'
p5233
S'858'
p5234
tp5235
a(S'40-619'
p5236
S'-579'
p5237
tp5238
a(S'658-150'
p5239
S'508'
p5240
tp5241
a(S'89-906'
p5242
S'-817'
p5243
tp5244
a(S'606-527'
p5245
S'79'
p5246
tp5247
a(S'749-560'
p5248
S'189'
p5249
tp5250
a(S'825-548'
p5251
S'277'
p5252
tp5253
a(S'890-941'
p5254
S'-51'
p5255
tp5256
a(S'415-673'
p5257
S'-258'
p5258
tp5259
a(S'360-504'
p5260
S'-144'
p5261
tp5262
a(S'301-127'
p5263
S'174'
p5264
tp5265
a(S'104-114'
p5266
S'-10'
p5267
tp5268
a(S'800-582'
p5269
S'218'
p5270
tp5271
a(S'399-821'
p5272
S'-422'
p5273
tp5274
a(S'601-592'
p5275
g842
tp5276
a(S'45-395'
p5277
S'-350'
p5278
tp5279
a(S'456-867'
p5280
S'-411'
p5281
tp5282
a(S'291-390'
p5283
S'-99'
p5284
tp5285
a(S'941-577'
p5286
S'364'
p5287
tp5288
a(S'627-396'
p5289
S'231'
p5290
tp5291
a(S'400-132'
p5292
S'268'
p5293
tp5294
a(S'177-314'
p5295
S'-137'
p5296
tp5297
a(S'903-344'
p5298
S'559'
p5299
tp5300
a(S'457-291'
p5301
S'166'
p5302
tp5303
a(S'863-659'
p5304
S'204'
p5305
tp5306
a(S'86-474'
p5307
S'-388'
p5308
tp5309
a(S'602-951'
p5310
S'-349'
p5311
tp5312
a(S'730-564'
p5313
S'166'
p5314
tp5315
a(S'216-697'
p5316
S'-481'
p5317
tp5318
a(S'822-406'
p5319
S'416'
p5320
tp5321
a(S'644-474'
p5322
S'170'
p5323
tp5324
a(S'657-808'
p5325
S'-151'
p5326
tp5327
a(S'253-69'
p5328
S'184'
p5329
tp5330
a(S'19-851'
p5331
S'-832'
p5332
tp5333
a(S'296-335'
p5334
S'-39'
p5335
tp5336
a(S'667-188'
p5337
S'479'
p5338
tp5339
a(S'636-744'
p5340
S'-108'
p5341
tp5342
a(S'669-814'
p5343
S'-145'
p5344
tp5345
a(S'317-631'
p5346
S'-314'
p5347
tp5348
a(S'897-906'
p5349
S'-9'
p5350
tp5351
a(S'176-108'
p5352
S'68'
p5353
tp5354
a(S'394-631'
p5355
S'-237'
p5356
tp5357
a(S'679-514'
p5358
S'165'
p5359
tp5360
a(S'982-873'
p5361
S'109'
p5362
tp5363
a(S'126-577'
p5364
S'-451'
p5365
tp5366
a(S'890-882'
p5367
g161
tp5368
a(S'475-979'
p5369
S'-504'
p5370
tp5371
a(S'739-949'
p5372
S'-210'
p5373
tp5374
a(S'970-304'
p5375
S'666'
p5376
tp5377
a(S'598-141'
p5378
S'457'
p5379
tp5380
a(S'691-207'
p5381
S'484'
p5382
tp5383
a(S'252-574'
p5384
S'-322'
p5385
tp5386
a(S'750-412'
p5387
S'338'
p5388
tp5389
a(S'357-826'
p5390
S'-469'
p5391
tp5392
a(S'706-165'
p5393
S'541'
p5394
tp5395
a(S'58-472'
p5396
S'-414'
p5397
tp5398
a(S'70-376'
p5399
S'-306'
p5400
tp5401
a(S'717-682'
p5402
S'35'
p5403
tp5404
a(S'187-659'
p5405
S'-472'
p5406
tp5407
a(S'462-824'
p5408
S'-362'
p5409
tp5410
a(S'654-213'
p5411
S'441'
p5412
tp5413
a(S'548-779'
p5414
S'-231'
p5415
tp5416
a(S'418-783'
p5417
S'-365'
p5418
tp5419
a(S'808-999'
p5420
S'-191'
p5421
tp5422
a(S'194-8'
p5423
S'186'
p5424
tp5425
a(S'837-641'
p5426
S'196'
p5427
tp5428
a(S'593-73'
p5429
S'520'
p5430
tp5431
a(S'188-541'
p5432
S'-353'
p5433
tp5434
a(S'414-675'
p5435
S'-261'
p5436
tp5437
a(S'206-196'
p5438
S'10'
p5439
tp5440
a(S'790-509'
p5441
S'281'
p5442
tp5443
a(S'819-599'
p5444
S'220'
p5445
tp5446
a(S'973-407'
p5447
S'566'
p5448
tp5449
a(S'963-5'
p5450
S'958'
p5451
tp5452
a(S'407-628'
p5453
S'-221'
p5454
tp5455
a(S'663-532'
p5456
S'131'
p5457
tp5458
a(S'766-932'
p5459
S'-166'
p5460
tp5461
a(S'476-922'
p5462
S'-446'
p5463
tp5464
a(S'673-704'
p5465
S'-31'
p5466
tp5467
a(S'74-907'
p5468
S'-833'
p5469
tp5470
a(S'297-247'
p5471
S'50'
p5472
tp5473
a(S'58-590'
p5474
S'-532'
p5475
tp5476
a(S'180-571'
p5477
S'-391'
p5478
tp5479
a(S'864-223'
p5480
S'641'
p5481
tp5482
a(S'328-251'
p5483
S'77'
p5484
tp5485
a(S'967-944'
p5486
S'23'
p5487
tp5488
a(S'17-489'
p5489
S'-472'
p5490
tp5491
a(S'185-41'
p5492
S'144'
p5493
tp5494
a(S'322-791'
p5495
S'-469'
p5496
tp5497
a(S'374-21'
p5498
S'353'
p5499
tp5500
a(S'314-102'
p5501
S'212'
p5502
tp5503
a(S'808-307'
p5504
S'501'
p5505
tp5506
a(S'6-457'
p5507
S'-451'
p5508
tp5509
a(S'851-439'
p5510
S'412'
p5511
tp5512
a(S'74-941'
p5513
S'-867'
p5514
tp5515
a(S'288-751'
p5516
S'-463'
p5517
tp5518
a(S'583-149'
p5519
S'434'
p5520
tp5521
a(S'648-992'
p5522
S'-344'
p5523
tp5524
a(S'383-385'
p5525
S'-2'
p5526
tp5527
a(S'90-953'
p5528
S'-863'
p5529
tp5530
a(S'835-456'
p5531
S'379'
p5532
tp5533
a(S'81-415'
p5534
S'-334'
p5535
tp5536
a(S'803-827'
p5537
S'-24'
p5538
tp5539
a(S'61-469'
p5540
S'-408'
p5541
tp5542
a(S'495-840'
p5543
S'-345'
p5544
tp5545
a(S'691-234'
p5546
S'457'
p5547
tp5548
a(S'154-999'
p5549
S'-845'
p5550
tp5551
a(S'395-309'
p5552
S'86'
p5553
tp5554
a(S'263-635'
p5555
S'-372'
p5556
tp5557
a(S'254-124'
p5558
S'130'
p5559
tp5560
a(S'290-615'
p5561
S'-325'
p5562
tp5563
a(S'999-143'
p5564
S'856'
p5565
tp5566
a(S'20-677'
p5567
S'-657'
p5568
tp5569
a(S'602-204'
p5570
S'398'
p5571
tp5572
a(S'726-510'
p5573
S'216'
p5574
tp5575
a(S'598-565'
p5576
S'33'
p5577
tp5578
a(S'905-749'
p5579
S'156'
p5580
tp5581
a(S'902-782'
p5582
S'120'
p5583
tp5584
a(S'114-528'
p5585
S'-414'
p5586
tp5587
a(S'507-920'
p5588
S'-413'
p5589
tp5590
a(S'926-951'
p5591
S'-25'
p5592
tp5593
a(S'574-250'
p5594
S'324'
p5595
tp5596
a(S'621-361'
p5597
S'260'
p5598
tp5599
a(S'447-649'
p5600
S'-202'
p5601
tp5602
a(S'786-319'
p5603
S'467'
p5604
tp5605
a(S'706-394'
p5606
S'312'
p5607
tp5608
a(S'751-255'
p5609
S'496'
p5610
tp5611
a(S'120-177'
p5612
S'-57'
p5613
tp5614
a(S'542-447'
p5615
S'95'
p5616
tp5617
a(S'92-237'
p5618
S'-145'
p5619
tp5620
a(S'530-802'
p5621
S'-272'
p5622
tp5623
a(S'653-469'
p5624
S'184'
p5625
tp5626
a(S'318-904'
p5627
S'-586'
p5628
tp5629
a(S'754-994'
p5630
S'-240'
p5631
tp5632
a(S'175-509'
p5633
S'-334'
p5634
tp5635
a(S'153-247'
p5636
S'-94'
p5637
tp5638
a(S'948-468'
p5639
S'480'
p5640
tp5641
a(S'865-982'
p5642
S'-117'
p5643
tp5644
a(S'462-206'
p5645
S'256'
p5646
tp5647
a(S'428-506'
p5648
S'-78'
p5649
tp5650
a(S'921-820'
p5651
S'101'
p5652
tp5653
a(S'407-338'
p5654
S'69'
p5655
tp5656
a(S'371-51'
p5657
S'320'
p5658
tp5659
a(S'470-415'
p5660
S'55'
p5661
tp5662
a(S'595-896'
p5663
S'-301'
p5664
tp5665
a(S'129-283'
p5666
S'-154'
p5667
tp5668
a(S'888-541'
p5669
S'347'
p5670
tp5671
a(S'820-654'
p5672
S'166'
p5673
tp5674
a(S'690-484'
p5675
S'206'
p5676
tp5677
a(S'787-660'
p5678
S'127'
p5679
tp5680
a(S'899-959'
p5681
S'-60'
p5682
tp5683
a(S'139-366'
p5684
S'-227'
p5685
tp5686
a(S'100-736'
p5687
S'-636'
p5688
tp5689
a(S'983-268'
p5690
S'715'
p5691
tp5692
a(S'339-244'
p5693
S'95'
p5694
tp5695
a(S'807-803'
p5696
g1966
tp5697
a(S'736-153'
p5698
S'583'
p5699
tp5700
a(S'21-114'
p5701
S'-93'
p5702
tp5703
a(S'880-46'
p5704
S'834'
p5705
tp5706
a(S'206-882'
p5707
S'-676'
p5708
tp5709
a(S'126-430'
p5710
S'-304'
p5711
tp5712
a(S'535-13'
p5713
S'522'
p5714
tp5715
a(S'483-862'
p5716
S'-379'
p5717
tp5718
a(S'569-693'
p5719
S'-124'
p5720
tp5721
a(S'282-242'
p5722
S'40'
p5723
tp5724
a(S'789-388'
p5725
S'401'
p5726
tp5727
a(S'804-515'
p5728
S'289'
p5729
tp5730
a(S'811-586'
p5731
S'225'
p5732
tp5733
a(S'322-81'
p5734
S'241'
p5735
tp5736
a(S'692-13'
p5737
S'679'
p5738
tp5739
a(S'428-489'
p5740
S'-61'
p5741
tp5742
a(S'72-402'
p5743
S'-330'
p5744
tp5745
a(S'415-718'
p5746
S'-303'
p5747
tp5748
a(S'135-487'
p5749
S'-352'
p5750
tp5751
a(S'186-313'
p5752
S'-127'
p5753
tp5754
a(S'902-231'
p5755
S'671'
p5756
tp5757
a(S'213-805'
p5758
S'-592'
p5759
tp5760
a(S'901-185'
p5761
S'716'
p5762
tp5763
a(S'283-297'
p5764
S'-14'
p5765
tp5766
a(S'577-773'
p5767
S'-196'
p5768
tp5769
a(S'999-209'
p5770
S'790'
p5771
tp5772
a(S'303-933'
p5773
S'-630'
p5774
tp5775
a(S'234-948'
p5776
S'-714'
p5777
tp5778
a(S'484-830'
p5779
S'-346'
p5780
tp5781
a(S'375-233'
p5782
S'142'
p5783
tp5784
a(S'216-101'
p5785
S'115'
p5786
tp5787
a(S'796-763'
p5788
S'33'
p5789
tp5790
a(S'532-273'
p5791
S'259'
p5792
tp5793
a(S'145-927'
p5794
S'-782'
p5795
tp5796
a(S'370-594'
p5797
S'-224'
p5798
tp5799
a(S'51-887'
p5800
S'-836'
p5801
tp5802
a(S'338-667'
p5803
S'-329'
p5804
tp5805
a(S'410-654'
p5806
S'-244'
p5807
tp5808
a(S'157-522'
p5809
S'-365'
p5810
tp5811
a(S'285-659'
p5812
S'-374'
p5813
tp5814
a(S'775-521'
p5815
S'254'
p5816
tp5817
a(S'375-232'
p5818
S'143'
p5819
tp5820
a(S'312-593'
p5821
S'-281'
p5822
tp5823
a(S'475-804'
p5824
S'-329'
p5825
tp5826
a(S'408-234'
p5827
S'174'
p5828
tp5829
a(S'998-0'
p5830
S'998'
p5831
tp5832
a(S'685-85'
p5833
S'600'
p5834
tp5835
a(S'379-226'
p5836
S'153'
p5837
tp5838
a(S'928-163'
p5839
S'765'
p5840
tp5841
a(S'490-13'
p5842
S'477'
p5843
tp5844
a(S'188-576'
p5845
S'-388'
p5846
tp5847
a(S'570-188'
p5848
S'382'
p5849
tp5850
a(S'94-68'
p5851
S'26'
p5852
tp5853
a(S'854-533'
p5854
S'321'
p5855
tp5856
a(S'993-769'
p5857
S'224'
p5858
tp5859
a(S'736-445'
p5860
S'291'
p5861
tp5862
a(S'100-862'
p5863
S'-762'
p5864
tp5865
a(S'822-129'
p5866
S'693'
p5867
tp5868
a(S'984-587'
p5869
S'397'
p5870
tp5871
a(S'535-889'
p5872
S'-354'
p5873
tp5874
a(S'525-190'
p5875
S'335'
p5876
tp5877
a(S'628-104'
p5878
S'524'
p5879
tp5880
a(S'156-78'
p5881
S'78'
p5882
tp5883
a(S'414-381'
p5884
S'33'
p5885
tp5886
a(S'194-888'
p5887
S'-694'
p5888
tp5889
a(S'197-93'
p5890
S'104'
p5891
tp5892
a(S'682-120'
p5893
S'562'
p5894
tp5895
a(S'244-820'
p5896
S'-576'
p5897
tp5898
a(S'917-473'
p5899
S'444'
p5900
tp5901
a(S'997-954'
p5902
S'43'
p5903
tp5904
a(S'508-369'
p5905
S'139'
p5906
tp5907
a(S'948-89'
p5908
S'859'
p5909
tp5910
a(S'196-260'
p5911
S'-64'
p5912
tp5913
a(S'314-460'
p5914
S'-146'
p5915
tp5916
a(S'17-635'
p5917
S'-618'
p5918
tp5919
a(S'756-678'
p5920
S'78'
p5921
tp5922
a(S'181-739'
p5923
S'-558'
p5924
tp5925
a(S'728-1'
p5926
S'727'
p5927
tp5928
a(S'712-837'
p5929
S'-125'
p5930
tp5931
a(S'812-250'
p5932
S'562'
p5933
tp5934
a(S'84-512'
p5935
S'-428'
p5936
tp5937
a(S'971-492'
p5938
S'479'
p5939
tp5940
a(S'638-46'
p5941
S'592'
p5942
tp5943
a(S'692-814'
p5944
S'-122'
p5945
tp5946
a(S'961-835'
p5947
S'126'
p5948
tp5949
a(S'105-872'
p5950
S'-767'
p5951
tp5952
a(S'747-467'
p5953
S'280'
p5954
tp5955
a(S'69-335'
p5956
S'-266'
p5957
tp5958
a(S'38-634'
p5959
S'-596'
p5960
tp5961
a(S'5-708'
p5962
S'-703'
p5963
tp5964
a(S'34-979'
p5965
S'-945'
p5966
tp5967
a(S'736-230'
p5968
S'506'
p5969
tp5970
a(S'307-156'
p5971
S'151'
p5972
tp5973
a(S'805-569'
p5974
S'236'
p5975
tp5976
a(S'623-616'
p5977
g509
tp5978
a(S'908-601'
p5979
S'307'
p5980
tp5981
a(S'39-561'
p5982
S'-522'
p5983
tp5984
a(S'488-559'
p5985
S'-71'
p5986
tp5987
a(S'532-137'
p5988
S'395'
p5989
tp5990
a(S'82-567'
p5991
S'-485'
p5992
tp5993
a(S'710-186'
p5994
S'524'
p5995
tp5996
a(S'148-260'
p5997
S'-112'
p5998
tp5999
a(S'619-433'
p6000
S'186'
p6001
tp6002
a(S'990-129'
p6003
S'861'
p6004
tp6005
a(S'63-498'
p6006
S'-435'
p6007
tp6008
a(S'493-417'
p6009
S'76'
p6010
tp6011
a(S'123-143'
p6012
S'-20'
p6013
tp6014
a(S'446-2'
p6015
S'444'
p6016
tp6017
a(S'833-181'
p6018
S'652'
p6019
tp6020
a(S'5-291'
p6021
S'-286'
p6022
tp6023
a(S'738-230'
p6024
S'508'
p6025
tp6026
a(S'370-590'
p6027
S'-220'
p6028
tp6029
a(S'354-295'
p6030
S'59'
p6031
tp6032
a(S'770-409'
p6033
S'361'
p6034
tp6035
a(S'458-157'
p6036
S'301'
p6037
tp6038
a(S'654-644'
p6039
S'10'
p6040
tp6041
a(S'487-305'
p6042
S'182'
p6043
tp6044
a(S'822-718'
p6045
S'104'
p6046
tp6047
a(S'371-176'
p6048
S'195'
p6049
tp6050
a(S'812-629'
p6051
S'183'
p6052
tp6053
a(S'413-417'
p6054
S'-4'
p6055
tp6056
a(S'867-512'
p6057
S'355'
p6058
tp6059
a(S'730-263'
p6060
S'467'
p6061
tp6062
a(S'784-902'
p6063
S'-118'
p6064
tp6065
a(S'142-94'
p6066
S'48'
p6067
tp6068
a(S'444-352'
p6069
S'92'
p6070
tp6071
a(S'905-638'
p6072
S'267'
p6073
tp6074
a(S'161-674'
p6075
S'-513'
p6076
tp6077
a(S'246-944'
p6078
S'-698'
p6079
tp6080
a(S'80-190'
p6081
S'-110'
p6082
tp6083
a(S'249-101'
p6084
S'148'
p6085
tp6086
a(S'733-69'
p6087
S'664'
p6088
tp6089
a(S'521-777'
p6090
S'-256'
p6091
tp6092
a(S'380-567'
p6093
S'-187'
p6094
tp6095
a(S'990-769'
p6096
S'221'
p6097
tp6098
a(S'337-117'
p6099
S'220'
p6100
tp6101
a(S'874-46'
p6102
S'828'
p6103
tp6104
a(S'538-614'
p6105
S'-76'
p6106
tp6107
a(S'106-358'
p6108
S'-252'
p6109
tp6110
a(S'145-861'
p6111
S'-716'
p6112
tp6113
a(S'785-791'
p6114
S'-6'
p6115
tp6116
a(S'660-722'
p6117
S'-62'
p6118
tp6119
a(S'790-781'
p6120
g842
tp6121
a(S'700-986'
p6122
S'-286'
p6123
tp6124
a(S'482-150'
p6125
S'332'
p6126
tp6127
a(S'148-396'
p6128
S'-248'
p6129
tp6130
a(S'75-811'
p6131
S'-736'
p6132
tp6133
a(S'814-541'
p6134
S'273'
p6135
tp6136
a(S'473-721'
p6137
S'-248'
p6138
tp6139
a(S'943-949'
p6140
S'-6'
p6141
tp6142
a(S'312-369'
p6143
S'-57'
p6144
tp6145
a(S'620-495'
p6146
S'125'
p6147
tp6148
a(S'799-855'
p6149
S'-56'
p6150
tp6151
a(S'836-340'
p6152
S'496'
p6153
tp6154
a(S'642-793'
p6155
S'-151'
p6156
tp6157
a(S'734-666'
p6158
S'68'
p6159
tp6160
a(S'365-241'
p6161
S'124'
p6162
tp6163
a(S'401-882'
p6164
S'-481'
p6165
tp6166
a(S'293-461'
p6167
S'-168'
p6168
tp6169
a(S'339-128'
p6170
S'211'
p6171
tp6172
a(S'969-582'
p6173
S'387'
p6174
tp6175
a(S'700-827'
p6176
S'-127'
p6177
tp6178
a(S'835-906'
p6179
S'-71'
p6180
tp6181
a(S'410-82'
p6182
S'328'
p6183
tp6184
a(S'153-537'
p6185
S'-384'
p6186
tp6187
a(S'454-220'
p6188
S'234'
p6189
tp6190
a(S'525-57'
p6191
S'468'
p6192
tp6193
a(S'852-626'
p6194
S'226'
p6195
tp6196
a(S'705-752'
p6197
S'-47'
p6198
tp6199
a(S'852-454'
p6200
S'398'
p6201
tp6202
a(S'469-805'
p6203
S'-336'
p6204
tp6205
a(S'390-432'
p6206
S'-42'
p6207
tp6208
a(S'633-304'
p6209
S'329'
p6210
tp6211
a(S'251-790'
p6212
S'-539'
p6213
tp6214
a(S'879-133'
p6215
S'746'
p6216
tp6217
a(S'408-531'
p6218
S'-123'
p6219
tp6220
a(S'824-857'
p6221
S'-33'
p6222
tp6223
a(S'484-816'
p6224
S'-332'
p6225
tp6226
a(S'140-850'
p6227
S'-710'
p6228
tp6229
a(S'560-533'
p6230
S'27'
p6231
tp6232
a(S'630-944'
p6233
S'-314'
p6234
tp6235
a(S'461-144'
p6236
S'317'
p6237
tp6238
a(S'900-840'
p6239
S'60'
p6240
tp6241
a(S'139-710'
p6242
S'-571'
p6243
tp6244
a(S'202-433'
p6245
S'-231'
p6246
tp6247
a(S'595-686'
p6248
S'-91'
p6249
tp6250
a(S'749-53'
p6251
S'696'
p6252
tp6253
a(S'783-931'
p6254
S'-148'
p6255
tp6256
a(S'867-208'
p6257
S'659'
p6258
tp6259
a(S'757-798'
p6260
S'-41'
p6261
tp6262
a(S'45-148'
p6263
S'-103'
p6264
tp6265
a(S'511-370'
p6266
S'141'
p6267
tp6268
a(S'304-421'
p6269
S'-117'
p6270
tp6271
a(S'509-219'
p6272
S'290'
p6273
tp6274
a(S'907-822'
p6275
S'85'
p6276
tp6277
a(S'795-399'
p6278
S'396'
p6279
tp6280
a(S'634-223'
p6281
S'411'
p6282
tp6283
a(S'574-165'
p6284
S'409'
p6285
tp6286
a(S'629-617'
p6287
S'12'
p6288
tp6289
a(S'302-250'
p6290
S'52'
p6291
tp6292
a(S'726-220'
p6293
S'506'
p6294
tp6295
a(S'525-208'
p6296
S'317'
p6297
tp6298
a(S'911-511'
p6299
S'400'
p6300
tp6301
a(S'971-687'
p6302
S'284'
p6303
tp6304
a(S'515-78'
p6305
S'437'
p6306
tp6307
a(S'625-426'
p6308
S'199'
p6309
tp6310
a(S'873-554'
p6311
S'319'
p6312
tp6313
a(S'167-628'
p6314
S'-461'
p6315
tp6316
a(S'641-831'
p6317
S'-190'
p6318
tp6319
a(S'374-69'
p6320
S'305'
p6321
tp6322
a(S'904-428'
p6323
S'476'
p6324
tp6325
a(S'174-6'
p6326
S'168'
p6327
tp6328
a(S'860-400'
p6329
S'460'
p6330
tp6331
a(S'833-722'
p6332
S'111'
p6333
tp6334
a(S'767-896'
p6335
S'-129'
p6336
tp6337
a(S'119-1'
p6338
S'118'
p6339
tp6340
a(S'95-995'
p6341
S'-900'
p6342
tp6343
a(S'816-297'
p6344
S'519'
p6345
tp6346
a(S'749-507'
p6347
S'242'
p6348
tp6349
a(S'35-162'
p6350
S'-127'
p6351
tp6352
a(S'373-343'
p6353
S'30'
p6354
tp6355
a(S'121-159'
p6356
S'-38'
p6357
tp6358
a(S'957-879'
p6359
S'78'
p6360
tp6361
a(S'361-467'
p6362
S'-106'
p6363
tp6364
a(S'391-324'
p6365
S'67'
p6366
tp6367
a(S'361-620'
p6368
S'-259'
p6369
tp6370
a(S'666-380'
p6371
S'286'
p6372
tp6373
a(S'462-394'
p6374
S'68'
p6375
tp6376
a(S'939-143'
p6377
S'796'
p6378
tp6379
a(S'680-201'
p6380
S'479'
p6381
tp6382
a(S'179-440'
p6383
S'-261'
p6384
tp6385
a(S'201-941'
p6386
S'-740'
p6387
tp6388
a(S'668-230'
p6389
S'438'
p6390
tp6391
a(S'191-796'
p6392
S'-605'
p6393
tp6394
a(S'641-758'
p6395
S'-117'
p6396
tp6397
a(S'528-422'
p6398
S'106'
p6399
tp6400
a(S'687-285'
p6401
S'402'
p6402
tp6403
a(S'277-475'
p6404
S'-198'
p6405
tp6406
a(S'335-85'
p6407
S'250'
p6408
tp6409
a(S'259-473'
p6410
S'-214'
p6411
tp6412
a(S'136-1'
p6413
S'135'
p6414
tp6415
a(S'680-811'
p6416
S'-131'
p6417
tp6418
a(S'492-573'
p6419
S'-81'
p6420
tp6421
a(S'686-469'
p6422
S'217'
p6423
tp6424
a(S'720-363'
p6425
S'357'
p6426
tp6427
a(S'364-422'
p6428
S'-58'
p6429
tp6430
a(S'71-79'
p6431
S'-8'
p6432
tp6433
a(S'384-456'
p6434
S'-72'
p6435
tp6436
a(S'775-41'
p6437
S'734'
p6438
tp6439
a(S'85-840'
p6440
S'-755'
p6441
tp6442
a(S'68-810'
p6443
S'-742'
p6444
tp6445
a(S'88-439'
p6446
S'-351'
p6447
tp6448
a(S'880-975'
p6449
S'-95'
p6450
tp6451
a(S'297-333'
p6452
S'-36'
p6453
tp6454
a(S'793-26'
p6455
S'767'
p6456
tp6457
a(S'290-806'
p6458
S'-516'
p6459
tp6460
a(S'441-545'
p6461
S'-104'
p6462
tp6463
a(S'843-169'
p6464
S'674'
p6465
tp6466
a(S'52-820'
p6467
S'-768'
p6468
tp6469
a(S'905-7'
p6470
S'898'
p6471
tp6472
a(S'462-630'
p6473
S'-168'
p6474
tp6475
a(S'151-956'
p6476
S'-805'
p6477
tp6478
a(S'458-390'
p6479
S'68'
p6480
tp6481
a(S'873-494'
p6482
S'379'
p6483
tp6484
a(S'610-893'
p6485
S'-283'
p6486
tp6487
a(S'169-892'
p6488
S'-723'
p6489
tp6490
a(S'24-456'
p6491
S'-432'
p6492
tp6493
a(S'114-811'
p6494
S'-697'
p6495
tp6496
a(S'852-571'
p6497
S'281'
p6498
tp6499
a(S'781-191'
p6500
S'590'
p6501
tp6502
a(S'239-815'
p6503
S'-576'
p6504
tp6505
a(S'813-712'
p6506
S'101'
p6507
tp6508
a(S'708-973'
p6509
S'-265'
p6510
tp6511
a(S'93-486'
p6512
S'-393'
p6513
tp6514
a(S'542-800'
p6515
S'-258'
p6516
tp6517
a(S'696-614'
p6518
S'82'
p6519
tp6520
a(S'111-375'
p6521
S'-264'
p6522
tp6523
a(S'371-791'
p6524
S'-420'
p6525
tp6526
a(S'515-11'
p6527
S'504'
p6528
tp6529
a(S'535-484'
p6530
S'51'
p6531
tp6532
a(S'361-428'
p6533
S'-67'
p6534
tp6535
a(S'597-520'
p6536
S'77'
p6537
tp6538
a(S'552-254'
p6539
S'298'
p6540
tp6541
a(S'619-313'
p6542
S'306'
p6543
tp6544
a(S'396-418'
p6545
S'-22'
p6546
tp6547
a(S'244-880'
p6548
S'-636'
p6549
tp6550
a(S'580-552'
p6551
S'28'
p6552
tp6553
a(S'193-411'
p6554
S'-218'
p6555
tp6556
a(S'331-109'
p6557
S'222'
p6558
tp6559
a(S'977-247'
p6560
S'730'
p6561
tp6562
a(S'283-292'
p6563
S'-9'
p6564
tp6565
a(S'792-891'
p6566
S'-99'
p6567
tp6568
a(S'241-193'
p6569
S'48'
p6570
tp6571
a(S'305-413'
p6572
S'-108'
p6573
tp6574
a(S'666-3'
p6575
S'663'
p6576
tp6577
a(S'440-136'
p6578
S'304'
p6579
tp6580
a(S'325-642'
p6581
S'-317'
p6582
tp6583
a(S'100-464'
p6584
S'-364'
p6585
tp6586
a(S'46-136'
p6587
S'-90'
p6588
tp6589
a(S'877-95'
p6590
S'782'
p6591
tp6592
a(S'410-902'
p6593
S'-492'
p6594
tp6595
a(S'510-195'
p6596
S'315'
p6597
tp6598
a(S'894-263'
p6599
S'631'
p6600
tp6601
a(S'514-875'
p6602
S'-361'
p6603
tp6604
a(S'141-294'
p6605
S'-153'
p6606
tp6607
a(S'512-981'
p6608
S'-469'
p6609
tp6610
a(S'772-476'
p6611
S'296'
p6612
tp6613
a(S'481-100'
p6614
S'381'
p6615
tp6616
a(S'375-255'
p6617
S'120'
p6618
tp6619
a(S'464-623'
p6620
S'-159'
p6621
tp6622
a(S'87-299'
p6623
S'-212'
p6624
tp6625
a(S'90-11'
p6626
S'79'
p6627
tp6628
a(S'583-800'
p6629
S'-217'
p6630
tp6631
a(S'405-838'
p6632
S'-433'
p6633
tp6634
a(S'721-981'
p6635
S'-260'
p6636
tp6637
a(S'210-412'
p6638
S'-202'
p6639
tp6640
a(S'865-899'
p6641
S'-34'
p6642
tp6643
a(S'916-274'
p6644
S'642'
p6645
tp6646
a(S'71-597'
p6647
S'-526'
p6648
tp6649
a(S'1-681'
p6650
S'-680'
p6651
tp6652
a(S'883-309'
p6653
S'574'
p6654
tp6655
a(S'357-875'
p6656
S'-518'
p6657
tp6658
a(S'876-74'
p6659
S'802'
p6660
tp6661
a(S'365-299'
p6662
S'66'
p6663
tp6664
a(S'532-294'
p6665
S'238'
p6666
tp6667
a(S'70-463'
p6668
S'-393'
p6669
tp6670
a(S'188-781'
p6671
S'-593'
p6672
tp6673
a(S'307-997'
p6674
S'-690'
p6675
tp6676
a(S'201-930'
p6677
S'-729'
p6678
tp6679
a(S'263-592'
p6680
S'-329'
p6681
tp6682
a(S'42-229'
p6683
S'-187'
p6684
tp6685
a(S'410-936'
p6686
S'-526'
p6687
tp6688
a(S'728-503'
p6689
S'225'
p6690
tp6691
a(S'106-282'
p6692
S'-176'
p6693
tp6694
a(S'660-550'
p6695
S'110'
p6696
tp6697
a(S'929-668'
p6698
S'261'
p6699
tp6700
a(S'243-106'
p6701
S'137'
p6702
tp6703
a(S'82-984'
p6704
S'-902'
p6705
tp6706
a(S'536-586'
p6707
S'-50'
p6708
tp6709
a(S'666-233'
p6710
S'433'
p6711
tp6712
a(S'247-899'
p6713
S'-652'
p6714
tp6715
a(S'843-226'
p6716
S'617'
p6717
tp6718
a(S'952-62'
p6719
S'890'
p6720
tp6721
a(S'627-515'
p6722
S'112'
p6723
tp6724
a(S'65-101'
p6725
S'-36'
p6726
tp6727
a(S'658-261'
p6728
S'397'
p6729
tp6730
a(S'91-243'
p6731
S'-152'
p6732
tp6733
a(S'24-456'
p6734
S'-432'
p6735
tp6736
a(S'671-433'
p6737
S'238'
p6738
tp6739
a(S'549-499'
p6740
S'50'
p6741
tp6742
a(S'85-62'
p6743
S'23'
p6744
tp6745
a(S'165-265'
p6746
S'-100'
p6747
tp6748
a(S'81-925'
p6749
S'-844'
p6750
tp6751
a(S'857-403'
p6752
S'454'
p6753
tp6754
a(S'690-286'
p6755
S'404'
p6756
tp6757
a(S'738-791'
p6758
S'-53'
p6759
tp6760
a(S'547-599'
p6761
S'-52'
p6762
tp6763
a(S'274-579'
p6764
S'-305'
p6765
tp6766
a(S'196-219'
p6767
S'-23'
p6768
tp6769
a(S'956-435'
p6770
S'521'
p6771
tp6772
a(S'102-36'
p6773
S'66'
p6774
tp6775
a(S'749-251'
p6776
S'498'
p6777
tp6778
a(S'973-871'
p6779
S'102'
p6780
tp6781
a(S'307-289'
p6782
S'18'
p6783
tp6784
a(S'641-994'
p6785
S'-353'
p6786
tp6787
a(S'865-239'
p6788
S'626'
p6789
tp6790
a(S'48-765'
p6791
S'-717'
p6792
tp6793
a(S'260-54'
p6794
S'206'
p6795
tp6796
a(S'33-517'
p6797
S'-484'
p6798
tp6799
a(S'198-526'
p6800
S'-328'
p6801
tp6802
a(S'19-297'
p6803
S'-278'
p6804
tp6805
a(S'892-715'
p6806
S'177'
p6807
tp6808
a(S'975-964'
p6809
S'11'
p6810
tp6811
a(S'670-282'
p6812
S'388'
p6813
tp6814
a(S'835-129'
p6815
S'706'
p6816
tp6817
a(S'253-625'
p6818
S'-372'
p6819
tp6820
a(S'886-57'
p6821
S'829'
p6822
tp6823
a(S'205-387'
p6824
S'-182'
p6825
tp6826
a(S'544-498'
p6827
S'46'
p6828
tp6829
a(S'788-334'
p6830
S'454'
p6831
tp6832
a(S'786-611'
p6833
S'175'
p6834
tp6835
a(S'54-346'
p6836
S'-292'
p6837
tp6838
a(S'996-203'
p6839
S'793'
p6840
tp6841
a(S'800-962'
p6842
S'-162'
p6843
tp6844
a(S'457-470'
p6845
S'-13'
p6846
tp6847
a(S'644-802'
p6848
S'-158'
p6849
tp6850
a(S'515-261'
p6851
S'254'
p6852
tp6853
a(S'840-175'
p6854
S'665'
p6855
tp6856
a(S'571-670'
p6857
S'-99'
p6858
tp6859
a(S'62-69'
p6860
S'-7'
p6861
tp6862
a(S'463-363'
p6863
S'100'
p6864
tp6865
a(S'616-611'
p6866
S'5'
p6867
tp6868
a(S'67-267'
p6869
S'-200'
p6870
tp6871
a(S'792-15'
p6872
S'777'
p6873
tp6874
a(S'387-328'
p6875
S'59'
p6876
tp6877
a(S'596-519'
p6878
S'77'
p6879
tp6880
a(S'127-298'
p6881
S'-171'
p6882
tp6883
a(S'958-698'
p6884
S'260'
p6885
tp6886
a(S'856-261'
p6887
S'595'
p6888
tp6889
a(S'70-57'
p6890
S'13'
p6891
tp6892
a(S'767-855'
p6893
S'-88'
p6894
tp6895
a(S'655-887'
p6896
S'-232'
p6897
tp6898
a(S'401-345'
p6899
S'56'
p6900
tp6901
a(S'270-836'
p6902
S'-566'
p6903
tp6904
a(S'475-221'
p6905
S'254'
p6906
tp6907
a(S'201-78'
p6908
S'123'
p6909
tp6910
a(S'236-196'
p6911
S'40'
p6912
tp6913
a(S'859-153'
p6914
S'706'
p6915
tp6916
a(S'61-362'
p6917
S'-301'
p6918
tp6919
a(S'372-902'
p6920
S'-530'
p6921
tp6922
a(S'487-386'
p6923
S'101'
p6924
tp6925
a(S'365-629'
p6926
S'-264'
p6927
tp6928
a(S'474-245'
p6929
S'229'
p6930
tp6931
a(S'471-825'
p6932
S'-354'
p6933
tp6934
a(S'660-842'
p6935
S'-182'
p6936
tp6937
a(S'755-834'
p6938
S'-79'
p6939
tp6940
a(S'521-785'
p6941
S'-264'
p6942
tp6943
a(S'862-734'
p6944
S'128'
p6945
tp6946
a(S'223-854'
p6947
S'-631'
p6948
tp6949
a(S'675-491'
p6950
S'184'
p6951
tp6952
a(S'656-89'
p6953
S'567'
p6954
tp6955
a(S'180-441'
p6956
S'-261'
p6957
tp6958
a(S'34-932'
p6959
S'-898'
p6960
tp6961
a(S'77-33'
p6962
S'44'
p6963
tp6964
a(S'474-713'
p6965
S'-239'
p6966
tp6967
a(S'527-762'
p6968
S'-235'
p6969
tp6970
a(S'774-970'
p6971
S'-196'
p6972
tp6973
a(S'413-539'
p6974
S'-126'
p6975
tp6976
a(S'928-896'
p6977
S'32'
p6978
tp6979
a(S'725-701'
p6980
S'24'
p6981
tp6982
a(S'414-784'
p6983
S'-370'
p6984
tp6985
a(S'137-251'
p6986
S'-114'
p6987
tp6988
a(S'925-652'
p6989
S'273'
p6990
tp6991
a(S'860-759'
p6992
S'101'
p6993
tp6994
a(S'26-863'
p6995
S'-837'
p6996
tp6997
a(S'937-185'
p6998
S'752'
p6999
tp7000
a(S'242-99'
p7001
S'143'
p7002
tp7003
a(S'73-571'
p7004
S'-498'
p7005
tp7006
a(S'889-946'
p7007
S'-57'
p7008
tp7009
a(S'756-382'
p7010
S'374'
p7011
tp7012
a(S'794-631'
p7013
S'163'
p7014
tp7015
a(S'436-148'
p7016
S'288'
p7017
tp7018
a(S'800-61'
p7019
S'739'
p7020
tp7021
a(S'411-168'
p7022
S'243'
p7023
tp7024
a(S'708-142'
p7025
S'566'
p7026
tp7027
a(S'381-799'
p7028
S'-418'
p7029
tp7030
a(S'882-490'
p7031
S'392'
p7032
tp7033
a(S'43-804'
p7034
S'-761'
p7035
tp7036
a(S'972-783'
p7037
S'189'
p7038
tp7039
a(S'468-708'
p7040
S'-240'
p7041
tp7042
a(S'337-621'
p7043
S'-284'
p7044
tp7045
a(S'173-298'
p7046
S'-125'
p7047
tp7048
a(S'259-314'
p7049
S'-55'
p7050
tp7051
a(S'893-370'
p7052
S'523'
p7053
tp7054
a(S'337-290'
p7055
S'47'
p7056
tp7057
a(S'350-970'
p7058
S'-620'
p7059
tp7060
a(S'538-227'
p7061
S'311'
p7062
tp7063
a(S'4-721'
p7064
S'-717'
p7065
tp7066
a(S'199-7'
p7067
S'192'
p7068
tp7069
a(S'510-622'
p7070
S'-112'
p7071
tp7072
a(S'19-172'
p7073
S'-153'
p7074
tp7075
a(S'8-309'
p7076
S'-301'
p7077
tp7078
a(S'715-705'
p7079
S'10'
p7080
tp7081
a(S'510-371'
p7082
S'139'
p7083
tp7084
a(S'988-874'
p7085
S'114'
p7086
tp7087
a(S'654-480'
p7088
S'174'
p7089
tp7090
a(S'17-110'
p7091
S'-93'
p7092
tp7093
a(S'449-372'
p7094
S'77'
p7095
tp7096
a(S'279-521'
p7097
S'-242'
p7098
tp7099
a(S'748-570'
p7100
S'178'
p7101
tp7102
a(S'746-109'
p7103
S'637'
p7104
tp7105
a(S'529-980'
p7106
S'-451'
p7107
tp7108
a(S'370-179'
p7109
S'191'
p7110
tp7111
a(S'700-399'
p7112
S'301'
p7113
tp7114
a(S'302-557'
p7115
S'-255'
p7116
tp7117
a(S'307-300'
p7118
g509
tp7119
a(S'57-520'
p7120
S'-463'
p7121
tp7122
a(S'945-957'
p7123
S'-12'
p7124
tp7125
a(S'640-920'
p7126
S'-280'
p7127
tp7128
a(S'829-740'
p7129
S'89'
p7130
tp7131
a(S'713-486'
p7132
S'227'
p7133
tp7134
a(S'917-310'
p7135
S'607'
p7136
tp7137
a(S'178-318'
p7138
S'-140'
p7139
tp7140
a(S'82-925'
p7141
S'-843'
p7142
tp7143
a(S'451-205'
p7144
S'246'
p7145
tp7146
a(S'698-601'
p7147
S'97'
p7148
tp7149
a(S'667-668'
p7150
S'-1'
p7151
tp7152
a(S'95-516'
p7153
S'-421'
p7154
tp7155
a(S'264-515'
p7156
S'-251'
p7157
tp7158
a(S'526-839'
p7159
S'-313'
p7160
tp7161
a(S'578-916'
p7162
S'-338'
p7163
tp7164
a(S'683-218'
p7165
S'465'
p7166
tp7167
a(S'958-556'
p7168
S'402'
p7169
tp7170
a(S'769-168'
p7171
S'601'
p7172
tp7173
a(S'940-193'
p7174
S'747'
p7175
tp7176
a(S'573-5'
p7177
S'568'
p7178
tp7179
a(S'394-866'
p7180
S'-472'
p7181
tp7182
a(S'669-217'
p7183
S'452'
p7184
tp7185
a(S'276-398'
p7186
S'-122'
p7187
tp7188
a(S'724-848'
p7189
S'-124'
p7190
tp7191
a(S'373-653'
p7192
S'-280'
p7193
tp7194
a(S'456-579'
p7195
S'-123'
p7196
tp7197
a(S'983-684'
p7198
S'299'
p7199
tp7200
a(S'920-445'
p7201
S'475'
p7202
tp7203
a(S'266-531'
p7204
S'-265'
p7205
tp7206
a(S'971-896'
p7207
S'75'
p7208
tp7209
a(S'143-971'
p7210
S'-828'
p7211
tp7212
a(S'89-898'
p7213
S'-809'
p7214
tp7215
a(S'732-887'
p7216
S'-155'
p7217
tp7218
a(S'503-85'
p7219
S'418'
p7220
tp7221
a(S'395-841'
p7222
S'-446'
p7223
tp7224
a(S'751-523'
p7225
S'228'
p7226
tp7227
a(S'299-965'
p7228
S'-666'
p7229
tp7230
a(S'330-243'
p7231
S'87'
p7232
tp7233
a(S'609-508'
p7234
S'101'
p7235
tp7236
a(S'17-251'
p7237
S'-234'
p7238
tp7239
a(S'804-918'
p7240
S'-114'
p7241
tp7242
a(S'867-56'
p7243
S'811'
p7244
tp7245
a(S'262-218'
p7246
S'44'
p7247
tp7248
a(S'516-41'
p7249
S'475'
p7250
tp7251
a(S'528-743'
p7252
S'-215'
p7253
tp7254
a(S'350-112'
p7255
S'238'
p7256
tp7257
a(S'213-209'
p7258
g1966
tp7259
a(S'659-137'
p7260
S'522'
p7261
tp7262
a(S'495-167'
p7263
S'328'
p7264
tp7265
a(S'549-435'
p7266
S'114'
p7267
tp7268
a(S'26-371'
p7269
S'-345'
p7270
tp7271
a(S'253-740'
p7272
S'-487'
p7273
tp7274
a(S'509-718'
p7275
S'-209'
p7276
tp7277
a(S'495-602'
p7278
S'-107'
p7279
tp7280
a(S'220-338'
p7281
S'-118'
p7282
tp7283
a(S'88-420'
p7284
S'-332'
p7285
tp7286
a(S'944-568'
p7287
S'376'
p7288
tp7289
a(S'187-617'
p7290
S'-430'
p7291
tp7292
a(S'837-761'
p7293
S'76'
p7294
tp7295
a(S'68-354'
p7296
S'-286'
p7297
tp7298
a(S'325-799'
p7299
S'-474'
p7300
tp7301
a(S'382-886'
p7302
S'-504'
p7303
tp7304
a(S'973-667'
p7305
S'306'
p7306
tp7307
a(S'754-3'
p7308
S'751'
p7309
tp7310
a(S'163-923'
p7311
S'-760'
p7312
tp7313
a(S'883-67'
p7314
S'816'
p7315
tp7316
a(S'724-423'
p7317
S'301'
p7318
tp7319
a(S'649-946'
p7320
S'-297'
p7321
tp7322
a(S'914-647'
p7323
S'267'
p7324
tp7325
a(S'133-132'
p7326
g3486
tp7327
a(S'82-272'
p7328
S'-190'
p7329
tp7330
a(S'463-481'
p7331
S'-18'
p7332
tp7333
a(S'92-790'
p7334
S'-698'
p7335
tp7336
a(S'371-779'
p7337
S'-408'
p7338
tp7339
a(S'161-392'
p7340
S'-231'
p7341
tp7342
a(S'376-563'
p7343
S'-187'
p7344
tp7345
a(S'153-496'
p7346
S'-343'
p7347
tp7348
a(S'744-181'
p7349
S'563'
p7350
tp7351
a(S'963-52'
p7352
S'911'
p7353
tp7354
a(S'628-367'
p7355
S'261'
p7356
tp7357
a(S'405-269'
p7358
S'136'
p7359
tp7360
a(S'299-272'
p7361
S'27'
p7362
tp7363
a(S'169-283'
p7364
S'-114'
p7365
tp7366
a(S'256-163'
p7367
S'93'
p7368
tp7369
a(S'958-208'
p7370
S'750'
p7371
tp7372
a(S'753-835'
p7373
S'-82'
p7374
tp7375
a(S'42-521'
p7376
S'-479'
p7377
tp7378
a(S'364-546'
p7379
S'-182'
p7380
tp7381
a(S'678-724'
p7382
S'-46'
p7383
tp7384
a(S'387-289'
p7385
S'98'
p7386
tp7387
a(S'959-912'
p7388
S'47'
p7389
tp7390
a(S'537-962'
p7391
S'-425'
p7392
tp7393
a(S'371-553'
p7394
S'-182'
p7395
tp7396
a(S'752-765'
p7397
S'-13'
p7398
tp7399
a(S'978-653'
p7400
S'325'
p7401
tp7402
a(S'395-576'
p7403
S'-181'
p7404
tp7405
a(S'66-605'
p7406
S'-539'
p7407
tp7408
a(S'494-626'
p7409
S'-132'
p7410
tp7411
a(S'486-497'
p7412
S'-11'
p7413
tp7414
a(S'232-121'
p7415
S'111'
p7416
tp7417
a(S'963-35'
p7418
S'928'
p7419
tp7420
a(S'153-393'
p7421
S'-240'
p7422
tp7423
a(S'600-642'
p7424
S'-42'
p7425
tp7426
a(S'422-522'
p7427
S'-100'
p7428
tp7429
a(S'174-726'
p7430
S'-552'
p7431
tp7432
a(S'168-224'
p7433
S'-56'
p7434
tp7435
a(S'218-32'
p7436
S'186'
p7437
tp7438
a(S'10-66'
p7439
S'-56'
p7440
tp7441
a(S'739-139'
p7442
S'600'
p7443
tp7444
a(S'490-120'
p7445
S'370'
p7446
tp7447
a(S'886-491'
p7448
S'395'
p7449
tp7450
a(S'656-478'
p7451
S'178'
p7452
tp7453
a(S'998-900'
p7454
S'98'
p7455
tp7456
a(S'301-863'
p7457
S'-562'
p7458
tp7459
a(S'731-354'
p7460
S'377'
p7461
tp7462
a(S'474-365'
p7463
S'109'
p7464
tp7465
a(S'998-740'
p7466
S'258'
p7467
tp7468
a(S'365-182'
p7469
S'183'
p7470
tp7471
a(S'868-559'
p7472
S'309'
p7473
tp7474
a(S'684-171'
p7475
S'513'
p7476
tp7477
a(S'325-973'
p7478
S'-648'
p7479
tp7480
a(S'637-523'
p7481
S'114'
p7482
tp7483
a(S'464-521'
p7484
S'-57'
p7485
tp7486
a(S'543-961'
p7487
S'-418'
p7488
tp7489
a(S'189-329'
p7490
S'-140'
p7491
tp7492
a(S'885-541'
p7493
S'344'
p7494
tp7495
a(S'782-520'
p7496
S'262'
p7497
tp7498
a(S'647-967'
p7499
S'-320'
p7500
tp7501
a(S'315-49'
p7502
S'266'
p7503
tp7504
a(S'613-143'
p7505
S'470'
p7506
tp7507
a(S'248-451'
p7508
S'-203'
p7509
tp7510
a(S'200-751'
p7511
S'-551'
p7512
tp7513
a(S'23-80'
p7514
S'-57'
p7515
tp7516
a(S'488-406'
p7517
S'82'
p7518
tp7519
a(S'699-813'
p7520
S'-114'
p7521
tp7522
a(S'911-335'
p7523
S'576'
p7524
tp7525
a(S'870-543'
p7526
S'327'
p7527
tp7528
a(S'822-261'
p7529
S'561'
p7530
tp7531
a(S'780-410'
p7532
S'370'
p7533
tp7534
a(S'731-976'
p7535
S'-245'
p7536
tp7537
a(S'172-209'
p7538
S'-37'
p7539
tp7540
a(S'413-500'
p7541
S'-87'
p7542
tp7543
a(S'501-523'
p7544
S'-22'
p7545
tp7546
a(S'981-372'
p7547
S'609'
p7548
tp7549
a(S'625-152'
p7550
S'473'
p7551
tp7552
a(S'627-292'
p7553
S'335'
p7554
tp7555
a(S'465-191'
p7556
S'274'
p7557
tp7558
a(S'856-142'
p7559
S'714'
p7560
tp7561
a(S'106-173'
p7562
S'-67'
p7563
tp7564
a(S'926-299'
p7565
S'627'
p7566
tp7567
a(S'354-554'
p7568
S'-200'
p7569
tp7570
a(S'941-107'
p7571
S'834'
p7572
tp7573
a(S'757-301'
p7574
S'456'
p7575
tp7576
a(S'224-366'
p7577
S'-142'
p7578
tp7579
a(S'883-37'
p7580
S'846'
p7581
tp7582
a(S'401-835'
p7583
S'-434'
p7584
tp7585
a(S'201-196'
p7586
g6867
tp7587
a(S'632-21'
p7588
S'611'
p7589
tp7590
a(S'939-752'
p7591
S'187'
p7592
tp7593
a(S'829-968'
p7594
S'-139'
p7595
tp7596
a(S'931-75'
p7597
S'856'
p7598
tp7599
a(S'556-97'
p7600
S'459'
p7601
tp7602
a(S'361-259'
p7603
S'102'
p7604
tp7605
a(S'895-171'
p7606
S'724'
p7607
tp7608
a(S'280-800'
p7609
S'-520'
p7610
tp7611
a(S'95-751'
p7612
S'-656'
p7613
tp7614
a(S'434-250'
p7615
S'184'
p7616
tp7617
a(S'162-362'
p7618
S'-200'
p7619
tp7620
a(S'281-906'
p7621
S'-625'
p7622
tp7623
a(S'254-184'
p7624
S'70'
p7625
tp7626
a(S'254-819'
p7627
S'-565'
p7628
tp7629
a(S'115-725'
p7630
S'-610'
p7631
tp7632
a(S'688-936'
p7633
S'-248'
p7634
tp7635
a(S'256-818'
p7636
S'-562'
p7637
tp7638
a(S'436-583'
p7639
S'-147'
p7640
tp7641
a(S'393-745'
p7642
S'-352'
p7643
tp7644
a(S'547-364'
p7645
S'183'
p7646
tp7647
a(S'845-799'
p7648
S'46'
p7649
tp7650
a(S'963-837'
p7651
S'126'
p7652
tp7653
a(S'173-475'
p7654
S'-302'
p7655
tp7656
a(S'15-953'
p7657
S'-938'
p7658
tp7659
a(S'719-698'
p7660
S'21'
p7661
tp7662
a(S'249-638'
p7663
S'-389'
p7664
tp7665
a(S'496-781'
p7666
S'-285'
p7667
tp7668
a(S'16-480'
p7669
S'-464'
p7670
tp7671
a(S'480-156'
p7672
S'324'
p7673
tp7674
a(S'518-746'
p7675
S'-228'
p7676
tp7677
a(S'299-88'
p7678
S'211'
p7679
tp7680
a(S'859-536'
p7681
S'323'
p7682
tp7683
a(S'496-115'
p7684
S'381'
p7685
tp7686
a(S'1-496'
p7687
S'-495'
p7688
tp7689
a(S'304-17'
p7690
S'287'
p7691
tp7692
a(S'21-500'
p7693
S'-479'
p7694
tp7695
a(S'409-291'
p7696
S'118'
p7697
tp7698
a(S'67-501'
p7699
S'-434'
p7700
tp7701
a(S'690-967'
p7702
S'-277'
p7703
tp7704
a(S'263-503'
p7705
S'-240'
p7706
tp7707
a(S'100-51'
p7708
S'49'
p7709
tp7710
a(S'15-718'
p7711
S'-703'
p7712
tp7713
a(S'963-401'
p7714
S'562'
p7715
tp7716
a(S'372-194'
p7717
S'178'
p7718
tp7719
a(S'281-799'
p7720
S'-518'
p7721
tp7722
a(S'237-724'
p7723
S'-487'
p7724
tp7725
a(S'395-807'
p7726
S'-412'
p7727
tp7728
a(S'638-132'
p7729
S'506'
p7730
tp7731
a(S'195-864'
p7732
S'-669'
p7733
tp7734
a(S'561-27'
p7735
S'534'
p7736
tp7737
a(S'289-274'
p7738
S'15'
p7739
tp7740
a(S'331-949'
p7741
S'-618'
p7742
tp7743
a(S'565-447'
p7744
S'118'
p7745
tp7746
a(S'582-108'
p7747
S'474'
p7748
tp7749
a(S'860-12'
p7750
S'848'
p7751
tp7752
a(S'226-839'
p7753
S'-613'
p7754
tp7755
a(S'379-527'
p7756
S'-148'
p7757
tp7758
a(S'768-732'
p7759
S'36'
p7760
tp7761
a(S'813-357'
p7762
S'456'
p7763
tp7764
a(S'752-730'
p7765
S'22'
p7766
tp7767
a(S'313-152'
p7768
S'161'
p7769
tp7770
a(S'247-694'
p7771
S'-447'
p7772
tp7773
a(S'903-339'
p7774
S'564'
p7775
tp7776
a(S'202-532'
p7777
S'-330'
p7778
tp7779
a(S'915-489'
p7780
S'426'
p7781
tp7782
a(S'136-172'
p7783
S'-36'
p7784
tp7785
a(S'234-419'
p7786
S'-185'
p7787
tp7788
a(S'802-45'
p7789
S'757'
p7790
tp7791
a(S'541-857'
p7792
S'-316'
p7793
tp7794
a(S'787-338'
p7795
S'449'
p7796
tp7797
a(S'573-225'
p7798
S'348'
p7799
tp7800
a(S'817-247'
p7801
S'570'
p7802
tp7803
a(S'840-98'
p7804
S'742'
p7805
tp7806
a(S'805-871'
p7807
S'-66'
p7808
tp7809
a(S'347-975'
p7810
S'-628'
p7811
tp7812
a(S'105-646'
p7813
S'-541'
p7814
tp7815
a(S'220-557'
p7816
S'-337'
p7817
tp7818
a(S'408-972'
p7819
S'-564'
p7820
tp7821
a(S'112-733'
p7822
S'-621'
p7823
tp7824
a(S'187-896'
p7825
S'-709'
p7826
tp7827
a(S'279-360'
p7828
S'-81'
p7829
tp7830
a(S'200-833'
p7831
S'-633'
p7832
tp7833
a(S'177-362'
p7834
S'-185'
p7835
tp7836
a(S'118-67'
p7837
S'51'
p7838
tp7839
a(S'529-16'
p7840
S'513'
p7841
tp7842
a(S'643-819'
p7843
S'-176'
p7844
tp7845
a(S'35-879'
p7846
S'-844'
p7847
tp7848
a(S'545-504'
p7849
S'41'
p7850
tp7851
a(S'876-678'
p7852
S'198'
p7853
tp7854
a(S'705-374'
p7855
S'331'
p7856
tp7857
a(S'296-470'
p7858
S'-174'
p7859
tp7860
a(S'427-526'
p7861
S'-99'
p7862
tp7863
a(S'584-578'
p7864
g4125
tp7865
a(S'218-75'
p7866
S'143'
p7867
tp7868
a(S'301-830'
p7869
S'-529'
p7870
tp7871
a(S'370-212'
p7872
S'158'
p7873
tp7874
a(S'366-274'
p7875
S'92'
p7876
tp7877
a(S'544-311'
p7878
S'233'
p7879
tp7880
a(S'592-600'
p7881
S'-8'
p7882
tp7883
a(S'142-345'
p7884
S'-203'
p7885
tp7886
a(S'894-103'
p7887
S'791'
p7888
tp7889
a(S'845-96'
p7890
S'749'
p7891
tp7892
a(S'270-237'
p7893
S'33'
p7894
tp7895
a(S'968-912'
p7896
S'56'
p7897
tp7898
a(S'975-628'
p7899
S'347'
p7900
tp7901
a(S'944-489'
p7902
S'455'
p7903
tp7904
a(S'967-407'
p7905
S'560'
p7906
tp7907
a(S'801-902'
p7908
S'-101'
p7909
tp7910
a(S'441-257'
p7911
S'184'
p7912
tp7913
a(S'648-320'
p7914
S'328'
p7915
tp7916
a(S'894-919'
p7917
S'-25'
p7918
tp7919
a(S'553-310'
p7920
S'243'
p7921
tp7922
a(S'80-954'
p7923
S'-874'
p7924
tp7925
a(S'116-381'
p7926
S'-265'
p7927
tp7928
a(S'123-841'
p7929
S'-718'
p7930
tp7931
a(S'992-210'
p7932
S'782'
p7933
tp7934
a(S'294-374'
p7935
S'-80'
p7936
tp7937
a(S'941-436'
p7938
S'505'
p7939
tp7940
a(S'928-769'
p7941
S'159'
p7942
tp7943
a(S'268-678'
p7944
S'-410'
p7945
tp7946
a(S'582-185'
p7947
S'397'
p7948
tp7949
a(S'806-906'
p7950
S'-100'
p7951
tp7952
a(S'58-491'
p7953
S'-433'
p7954
tp7955
a(S'145-107'
p7956
S'38'
p7957
tp7958
a(S'105-412'
p7959
S'-307'
p7960
tp7961
a(S'222-654'
p7962
S'-432'
p7963
tp7964
a(S'482-438'
p7965
S'44'
p7966
tp7967
a(S'46-47'
p7968
S'-1'
p7969
tp7970
a(S'72-129'
p7971
S'-57'
p7972
tp7973
a(S'102-212'
p7974
S'-110'
p7975
tp7976
a(S'140-727'
p7977
S'-587'
p7978
tp7979
a(S'506-818'
p7980
S'-312'
p7981
tp7982
a(S'638-7'
p7983
S'631'
p7984
tp7985
a(S'730-114'
p7986
S'616'
p7987
tp7988
a(S'584-257'
p7989
S'327'
p7990
tp7991
a(S'158-0'
p7992
S'158'
p7993
tp7994
a(S'145-769'
p7995
S'-624'
p7996
tp7997
a(S'765-771'
p7998
S'-6'
p7999
tp8000
a(S'506-411'
p8001
S'95'
p8002
tp8003
a(S'362-698'
p8004
S'-336'
p8005
tp8006
a(S'935-175'
p8007
S'760'
p8008
tp8009
a(S'839-104'
p8010
S'735'
p8011
tp8012
a(S'806-461'
p8013
S'345'
p8014
tp8015
a(S'171-310'
p8016
S'-139'
p8017
tp8018
a(S'707-835'
p8019
S'-128'
p8020
tp8021
a(S'132-85'
p8022
S'47'
p8023
tp8024
a(S'372-521'
p8025
S'-149'
p8026
tp8027
a(S'694-656'
p8028
S'38'
p8029
tp8030
a(S'988-806'
p8031
S'182'
p8032
tp8033
a(S'94-407'
p8034
S'-313'
p8035
tp8036
a(S'233-602'
p8037
S'-369'
p8038
tp8039
a(S'204-299'
p8040
S'-95'
p8041
tp8042
a(S'73-541'
p8043
S'-468'
p8044
tp8045
a(S'681-561'
p8046
S'120'
p8047
tp8048
a(S'850-644'
p8049
S'206'
p8050
tp8051
a(S'438-90'
p8052
S'348'
p8053
tp8054
a(S'700-751'
p8055
S'-51'
p8056
tp8057
a(S'295-825'
p8058
S'-530'
p8059
tp8060
a(S'161-79'
p8061
S'82'
p8062
tp8063
a(S'92-80'
p8064
S'12'
p8065
tp8066
a(S'418-847'
p8067
S'-429'
p8068
tp8069
a(S'670-417'
p8070
S'253'
p8071
tp8072
a(S'617-362'
p8073
S'255'
p8074
tp8075
a(S'364-181'
p8076
S'183'
p8077
tp8078
a(S'700-127'
p8079
S'573'
p8080
tp8081
a(S'804-911'
p8082
S'-107'
p8083
tp8084
a(S'343-184'
p8085
S'159'
p8086
tp8087
a(S'925-626'
p8088
S'299'
p8089
tp8090
a(S'824-934'
p8091
S'-110'
p8092
tp8093
a(S'332-275'
p8094
S'57'
p8095
tp8096
a(S'55-468'
p8097
S'-413'
p8098
tp8099
a(S'981-92'
p8100
S'889'
p8101
tp8102
a(S'341-199'
p8103
S'142'
p8104
tp8105
a(S'551-977'
p8106
S'-426'
p8107
tp8108
a(S'390-773'
p8109
S'-383'
p8110
tp8111
a(S'666-749'
p8112
S'-83'
p8113
tp8114
a(S'884-377'
p8115
S'507'
p8116
tp8117
a(S'211-684'
p8118
S'-473'
p8119
tp8120
a(S'175-216'
p8121
S'-41'
p8122
tp8123
a(S'78-423'
p8124
S'-345'
p8125
tp8126
a(S'490-685'
p8127
S'-195'
p8128
tp8129
a(S'741-858'
p8130
S'-117'
p8131
tp8132
a(S'911-164'
p8133
S'747'
p8134
tp8135
a(S'267-635'
p8136
S'-368'
p8137
tp8138
a(S'456-215'
p8139
S'241'
p8140
tp8141
a(S'298-549'
p8142
S'-251'
p8143
tp8144
a(S'762-531'
p8145
S'231'
p8146
tp8147
a(S'460-404'
p8148
S'56'
p8149
tp8150
a(S'914-932'
p8151
S'-18'
p8152
tp8153
a(S'239-736'
p8154
S'-497'
p8155
tp8156
a(S'780-768'
p8157
S'12'
p8158
tp8159
a(S'733-496'
p8160
S'237'
p8161
tp8162
a(S'434-858'
p8163
S'-424'
p8164
tp8165
a(S'980-366'
p8166
S'614'
p8167
tp8168
a(S'990-996'
p8169
S'-6'
p8170
tp8171
a(S'791-121'
p8172
S'670'
p8173
tp8174
a(S'611-410'
p8175
S'201'
p8176
tp8177
a(S'857-716'
p8178
S'141'
p8179
tp8180
a(S'362-820'
p8181
S'-458'
p8182
tp8183
a(S'318-298'
p8184
S'20'
p8185
tp8186
a(S'242-11'
p8187
S'231'
p8188
tp8189
a(S'348-654'
p8190
S'-306'
p8191
tp8192
a(S'754-378'
p8193
S'376'
p8194
tp8195
a(S'677-850'
p8196
S'-173'
p8197
tp8198
a(S'599-860'
p8199
S'-261'
p8200
tp8201
a(S'292-155'
p8202
S'137'
p8203
tp8204
a(S'804-396'
p8205
S'408'
p8206
tp8207
a(S'662-451'
p8208
S'211'
p8209
tp8210
a(S'532-575'
p8211
S'-43'
p8212
tp8213
a(S'443-617'
p8214
S'-174'
p8215
tp8216
a(S'652-596'
p8217
S'56'
p8218
tp8219
a(S'61-242'
p8220
S'-181'
p8221
tp8222
a(S'944-544'
p8223
S'400'
p8224
tp8225
a(S'323-96'
p8226
S'227'
p8227
tp8228
a(S'219-446'
p8229
S'-227'
p8230
tp8231
a(S'865-166'
p8232
S'699'
p8233
tp8234
a(S'964-788'
p8235
S'176'
p8236
tp8237
a(S'115-381'
p8238
S'-266'
p8239
tp8240
a(S'277-192'
p8241
S'85'
p8242
tp8243
a(S'832-782'
p8244
S'50'
p8245
tp8246
a(S'58-915'
p8247
S'-857'
p8248
tp8249
a(S'388-724'
p8250
S'-336'
p8251
tp8252
a(S'827-318'
p8253
S'509'
p8254
tp8255
a(S'448-227'
p8256
S'221'
p8257
tp8258
a(S'441-168'
p8259
S'273'
p8260
tp8261
a(S'646-95'
p8262
S'551'
p8263
tp8264
a(S'479-750'
p8265
S'-271'
p8266
tp8267
a(S'882-870'
p8268
S'12'
p8269
tp8270
a(S'909-994'
p8271
S'-85'
p8272
tp8273
a(S'292-563'
p8274
S'-271'
p8275
tp8276
a(S'817-432'
p8277
S'385'
p8278
tp8279
a(S'350-678'
p8280
S'-328'
p8281
tp8282
a(S'779-670'
p8283
S'109'
p8284
tp8285
a(S'130-105'
p8286
S'25'
p8287
tp8288
a(S'766-543'
p8289
S'223'
p8290
tp8291
a(S'685-797'
p8292
S'-112'
p8293
tp8294
a(S'408-570'
p8295
S'-162'
p8296
tp8297
a(S'183-830'
p8298
S'-647'
p8299
tp8300
a(S'173-644'
p8301
S'-471'
p8302
tp8303
a(S'274-641'
p8304
S'-367'
p8305
tp8306
a(S'732-248'
p8307
S'484'
p8308
tp8309
a(S'726-978'
p8310
S'-252'
p8311
tp8312
a(S'941-122'
p8313
S'819'
p8314
tp8315
a(S'685-413'
p8316
S'272'
p8317
tp8318
a(S'882-481'
p8319
S'401'
p8320
tp8321
a(S'527-99'
p8322
S'428'
p8323
tp8324
a(S'924-145'
p8325
S'779'
p8326
tp8327
a(S'128-324'
p8328
S'-196'
p8329
tp8330
a(S'665-896'
p8331
S'-231'
p8332
tp8333
a(S'552-431'
p8334
S'121'
p8335
tp8336
a(S'125-351'
p8337
S'-226'
p8338
tp8339
a(S'999-123'
p8340
S'876'
p8341
tp8342
a(S'995-784'
p8343
S'211'
p8344
tp8345
a(S'634-886'
p8346
S'-252'
p8347
tp8348
a(S'730-788'
p8349
S'-58'
p8350
tp8351
a(S'416-64'
p8352
S'352'
p8353
tp8354
a(S'147-5'
p8355
S'142'
p8356
tp8357
a(S'549-169'
p8358
S'380'
p8359
tp8360
a(S'472-185'
p8361
S'287'
p8362
tp8363
a(S'159-961'
p8364
S'-802'
p8365
tp8366
a(S'556-147'
p8367
S'409'
p8368
tp8369
a(S'808-101'
p8370
S'707'
p8371
tp8372
a(S'946-655'
p8373
S'291'
p8374
tp8375
a(S'581-993'
p8376
S'-412'
p8377
tp8378
a(S'241-890'
p8379
S'-649'
p8380
tp8381
a(S'70-139'
p8382
S'-69'
p8383
tp8384
a(S'638-874'
p8385
S'-236'
p8386
tp8387
a(S'481-610'
p8388
S'-129'
p8389
tp8390
a(S'308-846'
p8391
S'-538'
p8392
tp8393
a(S'174-234'
p8394
S'-60'
p8395
tp8396
a(S'247-579'
p8397
S'-332'
p8398
tp8399
a(S'947-405'
p8400
S'542'
p8401
tp8402
a(S'957-26'
p8403
S'931'
p8404
tp8405
a(S'60-11'
p8406
S'49'
p8407
tp8408
a(S'91-48'
p8409
S'43'
p8410
tp8411
a(S'83-611'
p8412
S'-528'
p8413
tp8414
a(S'908-766'
p8415
S'142'
p8416
tp8417
a(S'503-523'
p8418
S'-20'
p8419
tp8420
a(S'935-196'
p8421
S'739'
p8422
tp8423
a(S'723-393'
p8424
S'330'
p8425
tp8426
a(S'629-603'
p8427
S'26'
p8428
tp8429
a(S'793-14'
p8430
S'779'
p8431
tp8432
a(S'86-779'
p8433
S'-693'
p8434
tp8435
a(S'579-28'
p8436
S'551'
p8437
tp8438
a(S'121-407'
p8439
S'-286'
p8440
tp8441
a(S'577-23'
p8442
S'554'
p8443
tp8444
a(S'152-180'
p8445
S'-28'
p8446
tp8447
a(S'499-295'
p8448
S'204'
p8449
tp8450
a(S'441-379'
p8451
S'62'
p8452
tp8453
a(S'761-676'
p8454
S'85'
p8455
tp8456
a(S'857-701'
p8457
S'156'
p8458
tp8459
a(S'713-430'
p8460
S'283'
p8461
tp8462
a(S'553-688'
p8463
S'-135'
p8464
tp8465
a(S'62-334'
p8466
S'-272'
p8467
tp8468
a(S'329-756'
p8469
S'-427'
p8470
tp8471
a(S'803-739'
p8472
S'64'
p8473
tp8474
a(S'280-540'
p8475
S'-260'
p8476
tp8477
a(S'121-474'
p8478
S'-353'
p8479
tp8480
a(S'71-937'
p8481
S'-866'
p8482
tp8483
a(S'996-881'
p8484
S'115'
p8485
tp8486
a(S'979-540'
p8487
S'439'
p8488
tp8489
a(S'437-311'
p8490
S'126'
p8491
tp8492
a(S'880-802'
p8493
S'78'
p8494
tp8495
a(S'799-488'
p8496
S'311'
p8497
tp8498
a(S'418-189'
p8499
S'229'
p8500
tp8501
a(S'437-471'
p8502
S'-34'
p8503
tp8504
a(S'557-536'
p8505
S'21'
p8506
tp8507
a(S'71-520'
p8508
S'-449'
p8509
tp8510
a(S'271-752'
p8511
S'-481'
p8512
tp8513
a(S'854-728'
p8514
S'126'
p8515
tp8516
a(S'997-54'
p8517
S'943'
p8518
tp8519
a(S'146-309'
p8520
S'-163'
p8521
tp8522
a(S'489-307'
p8523
S'182'
p8524
tp8525
a(S'510-26'
p8526
S'484'
p8527
tp8528
a(S'197-420'
p8529
S'-223'
p8530
tp8531
a(S'69-134'
p8532
S'-65'
p8533
tp8534
a(S'473-409'
p8535
S'64'
p8536
tp8537
a(S'289-287'
p8538
g973
tp8539
a(S'324-764'
p8540
S'-440'
p8541
tp8542
a(S'826-560'
p8543
S'266'
p8544
tp8545
a(S'399-350'
p8546
S'49'
p8547
tp8548
a(S'431-280'
p8549
S'151'
p8550
tp8551
a(S'68-656'
p8552
S'-588'
p8553
tp8554
a(S'45-775'
p8555
S'-730'
p8556
tp8557
a(S'507-422'
p8558
S'85'
p8559
tp8560
a(S'985-62'
p8561
S'923'
p8562
tp8563
a(S'75-629'
p8564
S'-554'
p8565
tp8566
a(S'895-716'
p8567
S'179'
p8568
tp8569
a(S'258-653'
p8570
S'-395'
p8571
tp8572
a(S'113-922'
p8573
S'-809'
p8574
tp8575
a(S'500-866'
p8576
S'-366'
p8577
tp8578
a(S'129-801'
p8579
S'-672'
p8580
tp8581
a(S'76-963'
p8582
S'-887'
p8583
tp8584
a(S'893-127'
p8585
S'766'
p8586
tp8587
a(S'310-937'
p8588
S'-627'
p8589
tp8590
a(S'102-580'
p8591
S'-478'
p8592
tp8593
a(S'606-262'
p8594
S'344'
p8595
tp8596
a(S'761-745'
p8597
S'16'
p8598
tp8599
a(S'877-709'
p8600
S'168'
p8601
tp8602
a(S'994-682'
p8603
S'312'
p8604
tp8605
a(S'808-768'
p8606
S'40'
p8607
tp8608
a(S'698-261'
p8609
S'437'
p8610
tp8611
a(S'74-246'
p8612
S'-172'
p8613
tp8614
a(S'206-610'
p8615
S'-404'
p8616
tp8617
a(S'717-449'
p8618
S'268'
p8619
tp8620
a(S'405-256'
p8621
S'149'
p8622
tp8623
a(S'167-605'
p8624
S'-438'
p8625
tp8626
a(S'328-438'
p8627
S'-110'
p8628
tp8629
a(S'795-363'
p8630
S'432'
p8631
tp8632
a(S'731-694'
p8633
S'37'
p8634
tp8635
a(S'726-233'
p8636
S'493'
p8637
tp8638
a(S'740-340'
p8639
S'400'
p8640
tp8641
a(S'172-720'
p8642
S'-548'
p8643
tp8644
a(S'295-167'
p8645
S'128'
p8646
tp8647
a(S'674-295'
p8648
S'379'
p8649
tp8650
a(S'388-162'
p8651
S'226'
p8652
tp8653
a(S'978-465'
p8654
S'513'
p8655
tp8656
a(S'420-618'
p8657
S'-198'
p8658
tp8659
a(S'883-579'
p8660
S'304'
p8661
tp8662
a(S'179-412'
p8663
S'-233'
p8664
tp8665
a(S'658-200'
p8666
S'458'
p8667
tp8668
a(S'110-955'
p8669
S'-845'
p8670
tp8671
a(S'752-417'
p8672
S'335'
p8673
tp8674
a(S'977-313'
p8675
S'664'
p8676
tp8677
a(S'287-573'
p8678
S'-286'
p8679
tp8680
a(S'728-244'
p8681
S'484'
p8682
tp8683
a(S'323-30'
p8684
S'293'
p8685
tp8686
a(S'987-31'
p8687
S'956'
p8688
tp8689
a(S'910-65'
p8690
S'845'
p8691
tp8692
a(S'24-863'
p8693
S'-839'
p8694
tp8695
a(S'98-615'
p8696
S'-517'
p8697
tp8698
a(S'760-528'
p8699
S'232'
p8700
tp8701
a(S'287-918'
p8702
S'-631'
p8703
tp8704
a(S'814-254'
p8705
S'560'
p8706
tp8707
a(S'663-769'
p8708
S'-106'
p8709
tp8710
a(S'898-241'
p8711
S'657'
p8712
tp8713
a(S'845-632'
p8714
S'213'
p8715
tp8716
a(S'539-144'
p8717
S'395'
p8718
tp8719
a(S'577-341'
p8720
S'236'
p8721
tp8722
a(S'956-758'
p8723
S'198'
p8724
tp8725
a(S'32-572'
p8726
S'-540'
p8727
tp8728
a(S'257-57'
p8729
S'200'
p8730
tp8731
a(S'638-425'
p8732
S'213'
p8733
tp8734
a(S'804-673'
p8735
S'131'
p8736
tp8737
a(S'701-764'
p8738
S'-63'
p8739
tp8740
a(S'597-341'
p8741
S'256'
p8742
tp8743
a(S'111-335'
p8744
S'-224'
p8745
tp8746
a(S'24-361'
p8747
S'-337'
p8748
tp8749
a(S'797-138'
p8750
S'659'
p8751
tp8752
a(S'41-992'
p8753
S'-951'
p8754
tp8755
a(S'707-644'
p8756
S'63'
p8757
tp8758
a(S'982-220'
p8759
S'762'
p8760
tp8761
a(S'584-285'
p8762
S'299'
p8763
tp8764
a(S'89-378'
p8765
S'-289'
p8766
tp8767
a(S'889-428'
p8768
S'461'
p8769
tp8770
a(S'912-462'
p8771
S'450'
p8772
tp8773
a(S'288-466'
p8774
S'-178'
p8775
tp8776
a(S'913-34'
p8777
S'879'
p8778
tp8779
a(S'597-258'
p8780
S'339'
p8781
tp8782
a(S'830-798'
p8783
S'32'
p8784
tp8785
a(S'363-907'
p8786
S'-544'
p8787
tp8788
a(S'979-136'
p8789
S'843'
p8790
tp8791
a(S'230-137'
p8792
S'93'
p8793
tp8794
a(S'859-828'
p8795
S'31'
p8796
tp8797
a(S'903-651'
p8798
S'252'
p8799
tp8800
a(S'907-618'
p8801
S'289'
p8802
tp8803
a(S'184-247'
p8804
S'-63'
p8805
tp8806
a(S'488-65'
p8807
S'423'
p8808
tp8809
a(S'663-181'
p8810
S'482'
p8811
tp8812
a(S'887-182'
p8813
S'705'
p8814
tp8815
a(S'173-309'
p8816
S'-136'
p8817
tp8818
a(S'721-231'
p8819
S'490'
p8820
tp8821
a(S'987-438'
p8822
S'549'
p8823
tp8824
a(S'440-425'
p8825
S'15'
p8826
tp8827
a(S'889-981'
p8828
S'-92'
p8829
tp8830
a(S'546-28'
p8831
S'518'
p8832
tp8833
a(S'484-554'
p8834
S'-70'
p8835
tp8836
a(S'467-366'
p8837
S'101'
p8838
tp8839
a(S'888-383'
p8840
S'505'
p8841
tp8842
a(S'555-212'
p8843
S'343'
p8844
tp8845
a(S'240-164'
p8846
S'76'
p8847
tp8848
a(S'148-799'
p8849
S'-651'
p8850
tp8851
a(S'347-690'
p8852
S'-343'
p8853
tp8854
a(S'953-750'
p8855
S'203'
p8856
tp8857
a(S'723-20'
p8858
S'703'
p8859
tp8860
a(S'114-207'
p8861
S'-93'
p8862
tp8863
a(S'148-17'
p8864
S'131'
p8865
tp8866
a(S'841-196'
p8867
S'645'
p8868
tp8869
a(S'153-917'
p8870
S'-764'
p8871
tp8872
a(S'973-45'
p8873
S'928'
p8874
tp8875
a(S'813-306'
p8876
S'507'
p8877
tp8878
a(S'56-19'
p8879
S'37'
p8880
tp8881
a(S'417-870'
p8882
S'-453'
p8883
tp8884
a(S'589-31'
p8885
S'558'
p8886
tp8887
a(S'915-386'
p8888
S'529'
p8889
tp8890
a(S'123-555'
p8891
S'-432'
p8892
tp8893
a(S'816-583'
p8894
S'233'
p8895
tp8896
a(S'374-493'
p8897
S'-119'
p8898
tp8899
a(S'832-103'
p8900
S'729'
p8901
tp8902
a(S'693-629'
p8903
S'64'
p8904
tp8905
a(S'305-873'
p8906
S'-568'
p8907
tp8908
a(S'839-313'
p8909
S'526'
p8910
tp8911
a(S'406-963'
p8912
S'-557'
p8913
tp8914
a(S'341-247'
p8915
S'94'
p8916
tp8917
a(S'143-706'
p8918
S'-563'
p8919
tp8920
a(S'248-347'
p8921
S'-99'
p8922
tp8923
a(S'123-477'
p8924
S'-354'
p8925
tp8926
a(S'272-814'
p8927
S'-542'
p8928
tp8929
a(S'362-809'
p8930
S'-447'
p8931
tp8932
a(S'363-505'
p8933
S'-142'
p8934
tp8935
a(S'594-275'
p8936
S'319'
p8937
tp8938
a(S'439-321'
p8939
S'118'
p8940
tp8941
a(S'574-799'
p8942
S'-225'
p8943
tp8944
a(S'466-736'
p8945
S'-270'
p8946
tp8947
a(S'878-771'
p8948
S'107'
p8949
tp8950
a(S'416-68'
p8951
S'348'
p8952
tp8953
a(S'700-221'
p8954
S'479'
p8955
tp8956
a(S'740-577'
p8957
S'163'
p8958
tp8959
a(S'529-984'
p8960
S'-455'
p8961
tp8962
a(S'711-856'
p8963
S'-145'
p8964
tp8965
a(S'481-572'
p8966
S'-91'
p8967
tp8968
a(S'525-629'
p8969
S'-104'
p8970
tp8971
a(S'691-968'
p8972
S'-277'
p8973
tp8974
a(S'163-351'
p8975
S'-188'
p8976
tp8977
a(S'562-486'
p8978
S'76'
p8979
tp8980
a(S'802-40'
p8981
S'762'
p8982
tp8983
a(S'56-160'
p8984
S'-104'
p8985
tp8986
a(S'208-198'
p8987
S'10'
p8988
tp8989
a(S'261-195'
p8990
S'66'
p8991
tp8992
a(S'822-569'
p8993
S'253'
p8994
tp8995
a(S'52-28'
p8996
S'24'
p8997
tp8998
a(S'306-195'
p8999
S'111'
p9000
tp9001
a(S'548-737'
p9002
S'-189'
p9003
tp9004
a(S'265-389'
p9005
S'-124'
p9006
tp9007
a(S'247-100'
p9008
S'147'
p9009
tp9010
a(S'252-801'
p9011
S'-549'
p9012
tp9013
a(S'639-44'
p9014
S'595'
p9015
tp9016
a(S'3-529'
p9017
S'-526'
p9018
tp9019
a(S'266-255'
p9020
S'11'
p9021
tp9022
a(S'363-573'
p9023
S'-210'
p9024
tp9025
a(S'223-623'
p9026
S'-400'
p9027
tp9028
a(S'974-72'
p9029
S'902'
p9030
tp9031
a(S'36-882'
p9032
S'-846'
p9033
tp9034
a(S'381-775'
p9035
S'-394'
p9036
tp9037
a(S'39-333'
p9038
S'-294'
p9039
tp9040
a(S'507-979'
p9041
S'-472'
p9042
tp9043
a(S'364-532'
p9044
S'-168'
p9045
tp9046
a(S'160-194'
p9047
S'-34'
p9048
tp9049
a(S'329-938'
p9050
S'-609'
p9051
tp9052
a(S'107-205'
p9053
S'-98'
p9054
tp9055
a(S'133-663'
p9056
S'-530'
p9057
tp9058
a(S'889-766'
p9059
S'123'
p9060
tp9061
a(S'758-513'
p9062
S'245'
p9063
tp9064
a(S'893-951'
p9065
S'-58'
p9066
tp9067
a(S'914-846'
p9068
S'68'
p9069
tp9070
a(S'720-398'
p9071
S'322'
p9072
tp9073
a(S'534-949'
p9074
S'-415'
p9075
tp9076
a(S'853-382'
p9077
S'471'
p9078
tp9079
a(S'615-544'
p9080
S'71'
p9081
tp9082
a(S'606-679'
p9083
S'-73'
p9084
tp9085
a(S'957-524'
p9086
S'433'
p9087
tp9088
a(S'15-360'
p9089
S'-345'
p9090
tp9091
a(S'362-184'
p9092
S'178'
p9093
tp9094
a(S'592-867'
p9095
S'-275'
p9096
tp9097
a(S'404-433'
p9098
S'-29'
p9099
tp9100
a(S'999-751'
p9101
S'248'
p9102
tp9103
a(S'513-800'
p9104
S'-287'
p9105
tp9106
a(S'623-395'
p9107
S'228'
p9108
tp9109
a(S'79-378'
p9110
S'-299'
p9111
tp9112
a(S'323-25'
p9113
S'298'
p9114
tp9115
a(S'650-722'
p9116
S'-72'
p9117
tp9118
a(S'340-16'
p9119
S'324'
p9120
tp9121
a(S'205-187'
p9122
S'18'
p9123
tp9124
a(S'407-82'
p9125
S'325'
p9126
tp9127
a(S'150-806'
p9128
S'-656'
p9129
tp9130
a(S'235-336'
p9131
S'-101'
p9132
tp9133
a(S'954-645'
p9134
S'309'
p9135
tp9136
a(S'738-315'
p9137
S'423'
p9138
tp9139
a(S'988-55'
p9140
S'933'
p9141
tp9142
a(S'705-474'
p9143
S'231'
p9144
tp9145
a(S'426-89'
p9146
S'337'
p9147
tp9148
a(S'552-59'
p9149
S'493'
p9150
tp9151
a(S'373-171'
p9152
S'202'
p9153
tp9154
a(S'629-686'
p9155
S'-57'
p9156
tp9157
a(S'69-454'
p9158
S'-385'
p9159
tp9160
a(S'347-946'
p9161
S'-599'
p9162
tp9163
a(S'910-843'
p9164
S'67'
p9165
tp9166
a(S'635-981'
p9167
S'-346'
p9168
tp9169
a(S'292-476'
p9170
S'-184'
p9171
tp9172
a(S'664-348'
p9173
S'316'
p9174
tp9175
a(S'425-380'
p9176
S'45'
p9177
tp9178
a(S'187-650'
p9179
S'-463'
p9180
tp9181
a(S'661-257'
p9182
S'404'
p9183
tp9184
a(S'278-701'
p9185
S'-423'
p9186
tp9187
a(S'994-639'
p9188
S'355'
p9189
tp9190
a(S'585-868'
p9191
S'-283'
p9192
tp9193
a(S'747-713'
p9194
S'34'
p9195
tp9196
a(S'416-218'
p9197
S'198'
p9198
tp9199
a(S'431-973'
p9200
S'-542'
p9201
tp9202
a(S'214-796'
p9203
S'-582'
p9204
tp9205
a(S'767-4'
p9206
S'763'
p9207
tp9208
a(S'71-522'
p9209
S'-451'
p9210
tp9211
a(S'906-807'
p9212
S'99'
p9213
tp9214
a(S'576-953'
p9215
S'-377'
p9216
tp9217
a(S'890-996'
p9218
S'-106'
p9219
tp9220
a(S'48-368'
p9221
S'-320'
p9222
tp9223
a(S'816-655'
p9224
S'161'
p9225
tp9226
a(S'348-183'
p9227
S'165'
p9228
tp9229
a(S'716-191'
p9230
S'525'
p9231
tp9232
a(S'50-160'
p9233
S'-110'
p9234
tp9235
a(S'753-423'
p9236
S'330'
p9237
tp9238
a(S'393-793'
p9239
S'-400'
p9240
tp9241
a(S'863-890'
p9242
S'-27'
p9243
tp9244
a(S'79-248'
p9245
S'-169'
p9246
tp9247
a(S'401-533'
p9248
S'-132'
p9249
tp9250
a(S'470-925'
p9251
S'-455'
p9252
tp9253
a(S'892-910'
p9254
S'-18'
p9255
tp9256
a(S'548-585'
p9257
S'-37'
p9258
tp9259
a(S'710-781'
p9260
S'-71'
p9261
tp9262
a(S'950-605'
p9263
S'345'
p9264
tp9265
a(S'101-738'
p9266
S'-637'
p9267
tp9268
a(S'78-693'
p9269
S'-615'
p9270
tp9271
a(S'341-805'
p9272
S'-464'
p9273
tp9274
a(S'873-845'
p9275
S'28'
p9276
tp9277
a(S'686-8'
p9278
S'678'
p9279
tp9280
a(S'742-378'
p9281
S'364'
p9282
tp9283
a(S'974-792'
p9284
S'182'
p9285
tp9286
a(S'443-257'
p9287
S'186'
p9288
tp9289
a(S'482-414'
p9290
S'68'
p9291
tp9292
a(S'363-574'
p9293
S'-211'
p9294
tp9295
a(S'394-376'
p9296
S'18'
p9297
tp9298
a(S'499-391'
p9299
S'108'
p9300
tp9301
a(S'868-87'
p9302
S'781'
p9303
tp9304
a(S'274-173'
p9305
S'101'
p9306
tp9307
a(S'563-39'
p9308
S'524'
p9309
tp9310
a(S'468-537'
p9311
S'-69'
p9312
tp9313
a(S'888-392'
p9314
S'496'
p9315
tp9316
a(S'930-82'
p9317
S'848'
p9318
tp9319
a(S'136-128'
p9320
g161
tp9321
a(S'487-189'
p9322
S'298'
p9323
tp9324
a(S'232-504'
p9325
S'-272'
p9326
tp9327
a(S'697-950'
p9328
S'-253'
p9329
tp9330
a(S'438-158'
p9331
S'280'
p9332
tp9333
a(S'163-255'
p9334
S'-92'
p9335
tp9336
a(S'856-321'
p9337
S'535'
p9338
tp9339
a(S'668-221'
p9340
S'447'
p9341
tp9342
a(S'85-35'
p9343
S'50'
p9344
tp9345
a(S'456-770'
p9346
S'-314'
p9347
tp9348
a(S'948-99'
p9349
S'849'
p9350
tp9351
a(S'218-558'
p9352
S'-340'
p9353
tp9354
a(S'851-736'
p9355
S'115'
p9356
tp9357
a(S'22-900'
p9358
S'-878'
p9359
tp9360
a(S'637-42'
p9361
S'595'
p9362
tp9363
a(S'638-647'
p9364
S'-9'
p9365
tp9366
a(S'157-241'
p9367
S'-84'
p9368
tp9369
a(S'123-920'
p9370
S'-797'
p9371
tp9372
a(S'735-243'
p9373
S'492'
p9374
tp9375
a(S'21-938'
p9376
S'-917'
p9377
tp9378
a(S'51-60'
p9379
S'-9'
p9380
tp9381
a(S'419-356'
p9382
S'63'
p9383
tp9384
a(S'150-718'
p9385
S'-568'
p9386
tp9387
a(S'835-863'
p9388
S'-28'
p9389
tp9390
a(S'538-515'
p9391
S'23'
p9392
tp9393
a(S'703-692'
p9394
S'11'
p9395
tp9396
a(S'821-72'
p9397
S'749'
p9398
tp9399
a(S'914-404'
p9400
S'510'
p9401
tp9402
a(S'15-260'
p9403
S'-245'
p9404
tp9405
a(S'333-712'
p9406
S'-379'
p9407
tp9408
a(S'518-104'
p9409
S'414'
p9410
tp9411
a(S'414-33'
p9412
S'381'
p9413
tp9414
a(S'271-244'
p9415
S'27'
p9416
tp9417
a(S'586-244'
p9418
S'342'
p9419
tp9420
a(S'61-285'
p9421
S'-224'
p9422
tp9423
a(S'979-951'
p9424
S'28'
p9425
tp9426
a(S'829-521'
p9427
S'308'
p9428
tp9429
a(S'22-861'
p9430
S'-839'
p9431
tp9432
a(S'790-769'
p9433
S'21'
p9434
tp9435
a(S'187-750'
p9436
S'-563'
p9437
tp9438
a(S'514-334'
p9439
S'180'
p9440
tp9441
a(S'526-61'
p9442
S'465'
p9443
tp9444
a(S'503-220'
p9445
S'283'
p9446
tp9447
a(S'49-268'
p9448
S'-219'
p9449
tp9450
a(S'989-242'
p9451
S'747'
p9452
tp9453
a(S'502-157'
p9454
S'345'
p9455
tp9456
a(S'279-294'
p9457
S'-15'
p9458
tp9459
a(S'713-382'
p9460
S'331'
p9461
tp9462
a(S'517-779'
p9463
S'-262'
p9464
tp9465
a(S'990-369'
p9466
S'621'
p9467
tp9468
a(S'396-226'
p9469
S'170'
p9470
tp9471
a(S'284-634'
p9472
S'-350'
p9473
tp9474
a(S'375-113'
p9475
S'262'
p9476
tp9477
a(S'358-675'
p9478
S'-317'
p9479
tp9480
a(S'225-831'
p9481
S'-606'
p9482
tp9483
a(S'866-243'
p9484
S'623'
p9485
tp9486
a(S'610-679'
p9487
S'-69'
p9488
tp9489
a(S'485-900'
p9490
S'-415'
p9491
tp9492
a(S'364-154'
p9493
S'210'
p9494
tp9495
a(S'423-108'
p9496
S'315'
p9497
tp9498
a(S'141-729'
p9499
S'-588'
p9500
tp9501
a(S'268-632'
p9502
S'-364'
p9503
tp9504
a(S'472-212'
p9505
S'260'
p9506
tp9507
a(S'346-328'
p9508
S'18'
p9509
tp9510
a(S'400-379'
p9511
S'21'
p9512
tp9513
a(S'845-338'
p9514
S'507'
p9515
tp9516
a(S'199-127'
p9517
S'72'
p9518
tp9519
a(S'869-952'
p9520
S'-83'
p9521
tp9522
a(S'931-556'
p9523
S'375'
p9524
tp9525
a(S'588-944'
p9526
S'-356'
p9527
tp9528
a(S'576-537'
p9529
S'39'
p9530
tp9531
a(S'322-748'
p9532
S'-426'
p9533
tp9534
a(S'183-91'
p9535
S'92'
p9536
tp9537
a(S'496-479'
p9538
S'17'
p9539
tp9540
a(S'946-467'
p9541
S'479'
p9542
tp9543
a(S'653-458'
p9544
S'195'
p9545
tp9546
a(S'953-907'
p9547
S'46'
p9548
tp9549
a(S'645-543'
p9550
S'102'
p9551
tp9552
a(S'887-588'
p9553
S'299'
p9554
tp9555
a(S'856-299'
p9556
S'557'
p9557
tp9558
a(S'537-443'
p9559
S'94'
p9560
tp9561
a(S'17-152'
p9562
S'-135'
p9563
tp9564
a(S'983-578'
p9565
S'405'
p9566
tp9567
a(S'99-503'
p9568
S'-404'
p9569
tp9570
a(S'623-946'
p9571
S'-323'
p9572
tp9573
a(S'892-845'
p9574
S'47'
p9575
tp9576
a(S'529-805'
p9577
S'-276'
p9578
tp9579
a(S'320-179'
p9580
S'141'
p9581
tp9582
a(S'664-239'
p9583
S'425'
p9584
tp9585
a(S'556-217'
p9586
S'339'
p9587
tp9588
a(S'105-357'
p9589
S'-252'
p9590
tp9591
a(S'871-703'
p9592
S'168'
p9593
tp9594
a(S'330-557'
p9595
S'-227'
p9596
tp9597
a(S'475-485'
p9598
S'-10'
p9599
tp9600
a(S'789-841'
p9601
S'-52'
p9602
tp9603
a(S'329-40'
p9604
S'289'
p9605
tp9606
a(S'220-400'
p9607
S'-180'
p9608
tp9609
a(S'958-54'
p9610
S'904'
p9611
tp9612
a(S'376-802'
p9613
S'-426'
p9614
tp9615
a(S'435-65'
p9616
S'370'
p9617
tp9618
a(S'404-831'
p9619
S'-427'
p9620
tp9621
a(S'730-81'
p9622
S'649'
p9623
tp9624
a(S'301-12'
p9625
S'289'
p9626
tp9627
a(S'757-761'
p9628
S'-4'
p9629
tp9630
a(S'45-651'
p9631
S'-606'
p9632
tp9633
a(S'926-937'
p9634
S'-11'
p9635
tp9636
a(S'680-542'
p9637
S'138'
p9638
tp9639
a(S'969-151'
p9640
S'818'
p9641
tp9642
a(S'514-481'
p9643
S'33'
p9644
tp9645
a(S'836-42'
p9646
S'794'
p9647
tp9648
a(S'60-449'
p9649
S'-389'
p9650
tp9651
a(S'868-111'
p9652
S'757'
p9653
tp9654
a(S'354-456'
p9655
S'-102'
p9656
tp9657
a(S'322-495'
p9658
S'-173'
p9659
tp9660
a(S'683-338'
p9661
S'345'
p9662
tp9663
a(S'209-660'
p9664
S'-451'
p9665
tp9666
a(S'495-890'
p9667
S'-395'
p9668
tp9669
a(S'372-579'
p9670
S'-207'
p9671
tp9672
a(S'335-536'
p9673
S'-201'
p9674
tp9675
a(S'413-949'
p9676
S'-536'
p9677
tp9678
a(S'620-951'
p9679
S'-331'
p9680
tp9681
a(S'417-801'
p9682
S'-384'
p9683
tp9684
a(S'39-880'
p9685
S'-841'
p9686
tp9687
a(S'560-728'
p9688
S'-168'
p9689
tp9690
a(S'654-980'
p9691
S'-326'
p9692
tp9693
a(S'717-635'
p9694
S'82'
p9695
tp9696
a(S'871-738'
p9697
S'133'
p9698
tp9699
a(S'502-53'
p9700
S'449'
p9701
tp9702
a(S'703-435'
p9703
S'268'
p9704
tp9705
a(S'561-734'
p9706
S'-173'
p9707
tp9708
a(S'363-233'
p9709
S'130'
p9710
tp9711
a(S'978-527'
p9712
S'451'
p9713
tp9714
a(S'118-151'
p9715
S'-33'
p9716
tp9717
a(S'956-384'
p9718
S'572'
p9719
tp9720
a(S'883-757'
p9721
S'126'
p9722
tp9723
a(S'395-297'
p9724
S'98'
p9725
tp9726
a(S'976-968'
p9727
g161
tp9728
a(S'723-888'
p9729
S'-165'
p9730
tp9731
a(S'716-354'
p9732
S'362'
p9733
tp9734
a(S'98-641'
p9735
S'-543'
p9736
tp9737
a(S'624-922'
p9738
S'-298'
p9739
tp9740
a(S'920-93'
p9741
S'827'
p9742
tp9743
a(S'468-522'
p9744
S'-54'
p9745
tp9746
a(S'924-478'
p9747
S'446'
p9748
tp9749
a(S'989-677'
p9750
S'312'
p9751
tp9752
a(S'469-501'
p9753
S'-32'
p9754
tp9755
a(S'930-956'
p9756
S'-26'
p9757
tp9758
a(S'273-878'
p9759
S'-605'
p9760
tp9761
a(S'895-25'
p9762
S'870'
p9763
tp9764
a(S'891-846'
p9765
S'45'
p9766
tp9767
a(S'615-766'
p9768
S'-151'
p9769
tp9770
a(S'381-375'
p9771
g4125
tp9772
a(S'761-602'
p9773
S'159'
p9774
tp9775
a(S'61-877'
p9776
S'-816'
p9777
tp9778
a(S'120-827'
p9779
S'-707'
p9780
tp9781
a(S'170-465'
p9782
S'-295'
p9783
tp9784
a(S'105-878'
p9785
S'-773'
p9786
tp9787
a(S'454-309'
p9788
S'145'
p9789
tp9790
a(S'553-773'
p9791
S'-220'
p9792
tp9793
a(S'230-341'
p9794
S'-111'
p9795
tp9796
a(S'770-582'
p9797
S'188'
p9798
tp9799
a(S'186-38'
p9800
S'148'
p9801
tp9802
a(S'505-286'
p9803
S'219'
p9804
tp9805
a(S'698-355'
p9806
S'343'
p9807
tp9808
a(S'137-114'
p9809
S'23'
p9810
tp9811
a(S'28-141'
p9812
S'-113'
p9813
tp9814
a(S'325-86'
p9815
S'239'
p9816
tp9817
a(S'851-986'
p9818
S'-135'
p9819
tp9820
a(S'456-453'
p9821
S'3'
p9822
tp9823
a(S'606-478'
p9824
S'128'
p9825
tp9826
a(S'160-938'
p9827
S'-778'
p9828
tp9829
a(S'329-412'
p9830
S'-83'
p9831
tp9832
a(S'863-722'
p9833
S'141'
p9834
tp9835
a(S'537-790'
p9836
S'-253'
p9837
tp9838
a(S'623-739'
p9839
S'-116'
p9840
tp9841
a(S'177-559'
p9842
S'-382'
p9843
tp9844
a(S'204-359'
p9845
S'-155'
p9846
tp9847
a(S'199-565'
p9848
S'-366'
p9849
tp9850
a(S'679-946'
p9851
S'-267'
p9852
tp9853
a(S'405-987'
p9854
S'-582'
p9855
tp9856
a(S'541-17'
p9857
S'524'
p9858
tp9859
a(S'497-473'
p9860
S'24'
p9861
tp9862
a(S'307-101'
p9863
S'206'
p9864
tp9865
a(S'196-222'
p9866
S'-26'
p9867
tp9868
a(S'472-398'
p9869
S'74'
p9870
tp9871
a(S'368-554'
p9872
S'-186'
p9873
tp9874
a(S'105-448'
p9875
S'-343'
p9876
tp9877
a(S'889-771'
p9878
S'118'
p9879
tp9880
a(S'28-803'
p9881
S'-775'
p9882
tp9883
a(S'643-52'
p9884
S'591'
p9885
tp9886
a(S'645-403'
p9887
S'242'
p9888
tp9889
a(S'512-520'
p9890
S'-8'
p9891
tp9892
a(S'168-335'
p9893
S'-167'
p9894
tp9895
a(S'716-535'
p9896
S'181'
p9897
tp9898
a(S'959-54'
p9899
S'905'
p9900
tp9901
a(S'403-937'
p9902
S'-534'
p9903
tp9904
a(S'150-718'
p9905
S'-568'
p9906
tp9907
a(S'352-478'
p9908
S'-126'
p9909
tp9910
a(S'132-236'
p9911
S'-104'
p9912
tp9913
a(S'395-589'
p9914
S'-194'
p9915
tp9916
a(S'205-358'
p9917
S'-153'
p9918
tp9919
a(S'45-276'
p9920
S'-231'
p9921
tp9922
a(S'556-82'
p9923
S'474'
p9924
tp9925
a(S'645-858'
p9926
S'-213'
p9927
tp9928
a(S'712-819'
p9929
S'-107'
p9930
tp9931
a(S'69-679'
p9932
S'-610'
p9933
tp9934
a(S'884-911'
p9935
S'-27'
p9936
tp9937
a(S'585-352'
p9938
S'233'
p9939
tp9940
a(S'955-748'
p9941
S'207'
p9942
tp9943
a(S'913-738'
p9944
S'175'
p9945
tp9946
a(S'872-30'
p9947
S'842'
p9948
tp9949
a(S'331-887'
p9950
S'-556'
p9951
tp9952
a(S'869-744'
p9953
S'125'
p9954
tp9955
a(S'48-181'
p9956
S'-133'
p9957
tp9958
a(S'658-72'
p9959
S'586'
p9960
tp9961
a(S'191-815'
p9962
S'-624'
p9963
tp9964
a(S'799-600'
p9965
S'199'
p9966
tp9967
a(S'940-734'
p9968
S'206'
p9969
tp9970
a(S'265-583'
p9971
S'-318'
p9972
tp9973
a(S'508-788'
p9974
S'-280'
p9975
tp9976
a(S'22-293'
p9977
S'-271'
p9978
tp9979
a(S'346-314'
p9980
S'32'
p9981
tp9982
a(S'611-223'
p9983
S'388'
p9984
tp9985
a(S'411-235'
p9986
S'176'
p9987
tp9988
a(S'521-841'
p9989
S'-320'
p9990
tp9991
a(S'28-621'
p9992
S'-593'
p9993
tp9994
a(S'211-507'
p9995
S'-296'
p9996
tp9997
a(S'932-44'
p9998
S'888'
p9999
tp10000
a(S'612-570'
p10001
S'42'
p10002
tp10003
a(S'3-216'
p10004
S'-213'
p10005
tp10006
a(S'195-228'
p10007
S'-33'
p10008
tp10009
a(S'208-824'
p10010
S'-616'
p10011
tp10012
a(S'744-59'
p10013
S'685'
p10014
tp10015
a(S'457-809'
p10016
S'-352'
p10017
tp10018
a(S'620-339'
p10019
S'281'
p10020
tp10021
a(S'830-221'
p10022
S'609'
p10023
tp10024
a(S'738-392'
p10025
S'346'
p10026
tp10027
a(S'299-719'
p10028
S'-420'
p10029
tp10030
a(S'819-649'
p10031
S'170'
p10032
tp10033
a(S'645-733'
p10034
S'-88'
p10035
tp10036
a(S'518-25'
p10037
S'493'
p10038
tp10039
a(S'497-679'
p10040
S'-182'
p10041
tp10042
a(S'163-303'
p10043
S'-140'
p10044
tp10045
a(S'86-636'
p10046
S'-550'
p10047
tp10048
a(S'273-835'
p10049
S'-562'
p10050
tp10051
a(S'464-849'
p10052
S'-385'
p10053
tp10054
a(S'576-330'
p10055
S'246'
p10056
tp10057
a(S'707-379'
p10058
S'328'
p10059
tp10060
a(S'882-974'
p10061
S'-92'
p10062
tp10063
a(S'326-979'
p10064
S'-653'
p10065
tp10066
a(S'430-832'
p10067
S'-402'
p10068
tp10069
a(S'844-7'
p10070
S'837'
p10071
tp10072
a(S'518-31'
p10073
S'487'
p10074
tp10075
a(S'625-137'
p10076
S'488'
p10077
tp10078
a(S'813-509'
p10079
S'304'
p10080
tp10081
a(S'992-565'
p10082
S'427'
p10083
tp10084
a(S'880-278'
p10085
S'602'
p10086
tp10087
a(S'369-315'
p10088
S'54'
p10089
tp10090
a(S'165-998'
p10091
S'-833'
p10092
tp10093
a(S'225-126'
p10094
S'99'
p10095
tp10096
a(S'774-748'
p10097
S'26'
p10098
tp10099
a(S'64-705'
p10100
S'-641'
p10101
tp10102
a(S'196-999'
p10103
S'-803'
p10104
tp10105
a(S'374-434'
p10106
S'-60'
p10107
tp10108
a(S'570-524'
p10109
S'46'
p10110
tp10111
a(S'935-669'
p10112
S'266'
p10113
tp10114
a(S'992-207'
p10115
S'785'
p10116
tp10117
a(S'275-29'
p10118
S'246'
p10119
tp10120
a(S'286-984'
p10121
S'-698'
p10122
tp10123
a(S'823-255'
p10124
S'568'
p10125
tp10126
a(S'633-695'
p10127
S'-62'
p10128
tp10129
a(S'301-285'
p10130
S'16'
p10131
tp10132
a(S'399-878'
p10133
S'-479'
p10134
tp10135
a(S'296-364'
p10136
S'-68'
p10137
tp10138
a(S'605-716'
p10139
S'-111'
p10140
tp10141
a(S'348-673'
p10142
S'-325'
p10143
tp10144
a(S'278-363'
p10145
S'-85'
p10146
tp10147
a(S'538-738'
p10148
S'-200'
p10149
tp10150
a(S'931-991'
p10151
S'-60'
p10152
tp10153
a(S'811-192'
p10154
S'619'
p10155
tp10156
a(S'771-143'
p10157
S'628'
p10158
tp10159
a(S'112-953'
p10160
S'-841'
p10161
tp10162
a(S'165-882'
p10163
S'-717'
p10164
tp10165
a(S'742-469'
p10166
S'273'
p10167
tp10168
a(S'73-762'
p10169
S'-689'
p10170
tp10171
a(S'646-248'
p10172
S'398'
p10173
tp10174
a(S'420-605'
p10175
S'-185'
p10176
tp10177
a(S'223-232'
p10178
S'-9'
p10179
tp10180
a(S'188-736'
p10181
S'-548'
p10182
tp10183
a(S'553-88'
p10184
S'465'
p10185
tp10186
a(S'320-329'
p10187
S'-9'
p10188
tp10189
a(S'315-849'
p10190
S'-534'
p10191
tp10192
a(S'182-844'
p10193
S'-662'
p10194
tp10195
a(S'687-111'
p10196
S'576'
p10197
tp10198
a(S'946-909'
p10199
S'37'
p10200
tp10201
a(S'600-165'
p10202
S'435'
p10203
tp10204
a(S'884-197'
p10205
S'687'
p10206
tp10207
a(S'983-674'
p10208
S'309'
p10209
tp10210
a(S'740-700'
p10211
S'40'
p10212
tp10213
a(S'468-929'
p10214
S'-461'
p10215
tp10216
a(S'330-693'
p10217
S'-363'
p10218
tp10219
a(S'224-381'
p10220
S'-157'
p10221
tp10222
a(S'167-791'
p10223
S'-624'
p10224
tp10225
a(S'638-908'
p10226
S'-270'
p10227
tp10228
a(S'745-28'
p10229
S'717'
p10230
tp10231
a(S'381-486'
p10232
S'-105'
p10233
tp10234
a(S'49-637'
p10235
S'-588'
p10236
tp10237
a(S'576-730'
p10238
S'-154'
p10239
tp10240
a(S'271-225'
p10241
S'46'
p10242
tp10243
a(S'527-640'
p10244
S'-113'
p10245
tp10246
a(S'817-649'
p10247
S'168'
p10248
tp10249
a(S'273-576'
p10250
S'-303'
p10251
tp10252
a(S'883-395'
p10253
S'488'
p10254
tp10255
a(S'177-212'
p10256
S'-35'
p10257
tp10258
a(S'297-657'
p10259
S'-360'
p10260
tp10261
a(S'9-319'
p10262
S'-310'
p10263
tp10264
a(S'240-882'
p10265
S'-642'
p10266
tp10267
a(S'428-532'
p10268
S'-104'
p10269
tp10270
a(S'607-828'
p10271
S'-221'
p10272
tp10273
a(S'84-289'
p10274
S'-205'
p10275
tp10276
a(S'719-554'
p10277
S'165'
p10278
tp10279
a(S'802-861'
p10280
S'-59'
p10281
tp10282
a(S'812-613'
p10283
S'199'
p10284
tp10285
a(S'976-865'
p10286
S'111'
p10287
tp10288
a(S'32-189'
p10289
S'-157'
p10290
tp10291
a(S'467-447'
p10292
S'20'
p10293
tp10294
a(S'948-925'
p10295
S'23'
p10296
tp10297
a(S'701-9'
p10298
S'692'
p10299
tp10300
a(S'445-433'
p10301
S'12'
p10302
tp10303
a(S'537-873'
p10304
S'-336'
p10305
tp10306
a(S'375-927'
p10307
S'-552'
p10308
tp10309
a(S'938-329'
p10310
S'609'
p10311
tp10312
a(S'615-404'
p10313
S'211'
p10314
tp10315
a(S'293-38'
p10316
S'255'
p10317
tp10318
a(S'0-129'
p10319
S'-129'
p10320
tp10321
a(S'169-807'
p10322
S'-638'
p10323
tp10324
a(S'694-942'
p10325
S'-248'
p10326
tp10327
a(S'503-57'
p10328
S'446'
p10329
tp10330
a(S'96-263'
p10331
S'-167'
p10332
tp10333
a(S'61-50'
p10334
S'11'
p10335
tp10336
a(S'712-815'
p10337
S'-103'
p10338
tp10339
a(S'528-5'
p10340
S'523'
p10341
tp10342
a(S'431-402'
p10343
S'29'
p10344
tp10345
a(S'248-633'
p10346
S'-385'
p10347
tp10348
a(S'996-799'
p10349
S'197'
p10350
tp10351
a(S'604-94'
p10352
S'510'
p10353
tp10354
a(S'584-708'
p10355
S'-124'
p10356
tp10357
a(S'220-385'
p10358
S'-165'
p10359
tp10360
a(S'437-44'
p10361
S'393'
p10362
tp10363
a(S'158-325'
p10364
S'-167'
p10365
tp10366
a(S'644-725'
p10367
S'-81'
p10368
tp10369
a(S'348-438'
p10370
S'-90'
p10371
tp10372
a(S'435-876'
p10373
S'-441'
p10374
tp10375
a(S'764-435'
p10376
S'329'
p10377
tp10378
a(S'839-704'
p10379
S'135'
p10380
tp10381
a(S'527-787'
p10382
S'-260'
p10383
tp10384
a(S'458-319'
p10385
S'139'
p10386
tp10387
a(S'853-265'
p10388
S'588'
p10389
tp10390
a(S'155-253'
p10391
S'-98'
p10392
tp10393
a(S'569-141'
p10394
S'428'
p10395
tp10396
a(S'839-508'
p10397
S'331'
p10398
tp10399
a(S'475-535'
p10400
S'-60'
p10401
tp10402
a(S'466-717'
p10403
S'-251'
p10404
tp10405
a(S'859-327'
p10406
S'532'
p10407
tp10408
a(S'804-298'
p10409
S'506'
p10410
tp10411
a(S'109-825'
p10412
S'-716'
p10413
tp10414
a(S'291-821'
p10415
S'-530'
p10416
tp10417
a(S'793-601'
p10418
S'192'
p10419
tp10420
a(S'953-578'
p10421
S'375'
p10422
tp10423
a(S'982-487'
p10424
S'495'
p10425
tp10426
a(S'875-313'
p10427
S'562'
p10428
tp10429
a(S'464-374'
p10430
S'90'
p10431
tp10432
a(S'142-729'
p10433
S'-587'
p10434
tp10435
a(S'125-258'
p10436
S'-133'
p10437
tp10438
a(S'951-519'
p10439
S'432'
p10440
tp10441
a(S'659-388'
p10442
S'271'
p10443
tp10444
a(S'623-758'
p10445
S'-135'
p10446
tp10447
a(S'756-960'
p10448
S'-204'
p10449
tp10450
a(S'671-849'
p10451
S'-178'
p10452
tp10453
a(S'153-11'
p10454
S'142'
p10455
tp10456
a(S'115-456'
p10457
S'-341'
p10458
tp10459
a(S'598-956'
p10460
S'-358'
p10461
tp10462
a(S'545-3'
p10463
S'542'
p10464
tp10465
a(S'729-767'
p10466
S'-38'
p10467
tp10468
a(S'545-588'
p10469
S'-43'
p10470
tp10471
a(S'850-606'
p10472
S'244'
p10473
tp10474
a(S'724-885'
p10475
S'-161'
p10476
tp10477
a(S'303-2'
p10478
S'301'
p10479
tp10480
a(S'847-164'
p10481
S'683'
p10482
tp10483
a(S'936-401'
p10484
S'535'
p10485
tp10486
a(S'522-518'
p10487
g1966
tp10488
a(S'837-527'
p10489
S'310'
p10490
tp10491
a(S'461-15'
p10492
S'446'
p10493
tp10494
a(S'514-974'
p10495
S'-460'
p10496
tp10497
a(S'235-75'
p10498
S'160'
p10499
tp10500
a(S'353-980'
p10501
S'-627'
p10502
tp10503
a(S'556-598'
p10504
S'-42'
p10505
tp10506
a(S'853-413'
p10507
S'440'
p10508
tp10509
a(S'97-902'
p10510
S'-805'
p10511
tp10512
a(S'355-390'
p10513
S'-35'
p10514
tp10515
a(S'487-912'
p10516
S'-425'
p10517
tp10518
a(S'742-925'
p10519
S'-183'
p10520
tp10521
a(S'573-803'
p10522
S'-230'
p10523
tp10524
a(S'350-853'
p10525
S'-503'
p10526
tp10527
a(S'519-517'
p10528
g973
tp10529
a(S'712-661'
p10530
S'51'
p10531
tp10532
a(S'620-410'
p10533
S'210'
p10534
tp10535
a(S'748-402'
p10536
S'346'
p10537
tp10538
a(S'962-20'
p10539
S'942'
p10540
tp10541
a(S'216-689'
p10542
S'-473'
p10543
tp10544
a(S'247-331'
p10545
S'-84'
p10546
tp10547
a(S'988-84'
p10548
S'904'
p10549
tp10550
a(S'111-889'
p10551
S'-778'
p10552
tp10553
a(S'643-809'
p10554
S'-166'
p10555
tp10556
a(S'930-496'
p10557
S'434'
p10558
tp10559
a(S'254-593'
p10560
S'-339'
p10561
tp10562
a(S'173-286'
p10563
S'-113'
p10564
tp10565
a(S'104-817'
p10566
S'-713'
p10567
tp10568
a(S'553-835'
p10569
S'-282'
p10570
tp10571
a(S'82-418'
p10572
S'-336'
p10573
tp10574
a(S'250-774'
p10575
S'-524'
p10576
tp10577
a(S'626-898'
p10578
S'-272'
p10579
tp10580
a(S'457-963'
p10581
S'-506'
p10582
tp10583
a(S'932-111'
p10584
S'821'
p10585
tp10586
a(S'957-293'
p10587
S'664'
p10588
tp10589
a(S'885-181'
p10590
S'704'
p10591
tp10592
a(S'414-308'
p10593
S'106'
p10594
tp10595
a(S'298-450'
p10596
S'-152'
p10597
tp10598
a(S'601-700'
p10599
S'-99'
p10600
tp10601
a(S'475-700'
p10602
S'-225'
p10603
tp10604
a(S'872-88'
p10605
S'784'
p10606
tp10607
a(S'551-286'
p10608
S'265'
p10609
tp10610
a(S'926-827'
p10611
S'99'
p10612
tp10613
a(S'578-156'
p10614
S'422'
p10615
tp10616
a(S'145-752'
p10617
S'-607'
p10618
tp10619
a(S'264-157'
p10620
S'107'
p10621
tp10622
a(S'585-880'
p10623
S'-295'
p10624
tp10625
a(S'439-707'
p10626
S'-268'
p10627
tp10628
a(S'909-813'
p10629
S'96'
p10630
tp10631
a(S'187-366'
p10632
S'-179'
p10633
tp10634
a(S'265-272'
p10635
S'-7'
p10636
tp10637
a(S'745-876'
p10638
S'-131'
p10639
tp10640
a(S'19-268'
p10641
S'-249'
p10642
tp10643
a(S'512-217'
p10644
S'295'
p10645
tp10646
a(S'153-735'
p10647
S'-582'
p10648
tp10649
a(S'317-449'
p10650
S'-132'
p10651
tp10652
a(S'995-137'
p10653
S'858'
p10654
tp10655
a(S'808-429'
p10656
S'379'
p10657
tp10658
a(S'232-122'
p10659
S'110'
p10660
tp10661
a(S'762-844'
p10662
S'-82'
p10663
tp10664
a(S'228-477'
p10665
S'-249'
p10666
tp10667
a(S'269-890'
p10668
S'-621'
p10669
tp10670
a(S'749-343'
p10671
S'406'
p10672
tp10673
a(S'483-331'
p10674
S'152'
p10675
tp10676
a(S'472-261'
p10677
S'211'
p10678
tp10679
a(S'17-863'
p10680
S'-846'
p10681
tp10682
a(S'770-178'
p10683
S'592'
p10684
tp10685
a(S'353-119'
p10686
S'234'
p10687
tp10688
a(S'885-339'
p10689
S'546'
p10690
tp10691
a(S'947-806'
p10692
S'141'
p10693
tp10694
a(S'928-47'
p10695
S'881'
p10696
tp10697
a(S'74-777'
p10698
S'-703'
p10699
tp10700
a(S'257-789'
p10701
S'-532'
p10702
tp10703
a(S'452-546'
p10704
S'-94'
p10705
tp10706
a(S'860-497'
p10707
S'363'
p10708
tp10709
a(S'285-936'
p10710
S'-651'
p10711
tp10712
a(S'172-169'
p10713
g9822
tp10714
a(S'240-305'
p10715
S'-65'
p10716
tp10717
a(S'995-603'
p10718
S'392'
p10719
tp10720
a(S'874-588'
p10721
S'286'
p10722
tp10723
a(S'242-11'
p10724
S'231'
p10725
tp10726
a(S'850-807'
p10727
S'43'
p10728
tp10729
a(S'676-117'
p10730
S'559'
p10731
tp10732
a(S'430-786'
p10733
S'-356'
p10734
tp10735
a(S'36-982'
p10736
S'-946'
p10737
tp10738
a(S'137-296'
p10739
S'-159'
p10740
tp10741
a(S'487-72'
p10742
S'415'
p10743
tp10744
a(S'542-440'
p10745
S'102'
p10746
tp10747
a(S'865-590'
p10748
S'275'
p10749
tp10750
a(S'505-649'
p10751
S'-144'
p10752
tp10753
a(S'355-522'
p10754
S'-167'
p10755
tp10756
a(S'288-158'
p10757
S'130'
p10758
tp10759
a(S'869-40'
p10760
S'829'
p10761
tp10762
a(S'485-922'
p10763
S'-437'
p10764
tp10765
a(S'453-472'
p10766
S'-19'
p10767
tp10768
a(S'576-507'
p10769
S'69'
p10770
tp10771
a(S'23-525'
p10772
S'-502'
p10773
tp10774
a(S'969-227'
p10775
S'742'
p10776
tp10777
a(S'415-650'
p10778
S'-235'
p10779
tp10780
a(S'100-683'
p10781
S'-583'
p10782
tp10783
a(S'663-990'
p10784
S'-327'
p10785
tp10786
a(S'319-336'
p10787
S'-17'
p10788
tp10789
a(S'23-150'
p10790
S'-127'
p10791
tp10792
a(S'745-439'
p10793
S'306'
p10794
tp10795
a(S'529-600'
p10796
S'-71'
p10797
tp10798
a(S'329-843'
p10799
S'-514'
p10800
tp10801
a(S'749-429'
p10802
S'320'
p10803
tp10804
a(S'819-711'
p10805
S'108'
p10806
tp10807
a(S'303-647'
p10808
S'-344'
p10809
tp10810
a(S'401-907'
p10811
S'-506'
p10812
tp10813
a(S'500-581'
p10814
S'-81'
p10815
tp10816
a(S'319-245'
p10817
S'74'
p10818
tp10819
a(S'409-963'
p10820
S'-554'
p10821
tp10822
a(S'567-551'
p10823
S'16'
p10824
tp10825
a(S'61-440'
p10826
S'-379'
p10827
tp10828
a(S'451-4'
p10829
S'447'
p10830
tp10831
a(S'462-867'
p10832
S'-405'
p10833
tp10834
a(S'313-171'
p10835
S'142'
p10836
tp10837
a(S'262-609'
p10838
S'-347'
p10839
tp10840
a(S'276-127'
p10841
S'149'
p10842
tp10843
a(S'827-715'
p10844
S'112'
p10845
tp10846
a(S'74-272'
p10847
S'-198'
p10848
tp10849
a(S'988-198'
p10850
S'790'
p10851
tp10852
a(S'221-268'
p10853
S'-47'
p10854
tp10855
a(S'900-535'
p10856
S'365'
p10857
tp10858
a(S'275-639'
p10859
S'-364'
p10860
tp10861
a(S'325-114'
p10862
S'211'
p10863
tp10864
a(S'48-22'
p10865
S'26'
p10866
tp10867
a(S'295-636'
p10868
S'-341'
p10869
tp10870
a(S'320-831'
p10871
S'-511'
p10872
tp10873
a(S'753-712'
p10874
S'41'
p10875
tp10876
a(S'184-433'
p10877
S'-249'
p10878
tp10879
a(S'415-744'
p10880
S'-329'
p10881
tp10882
a(S'535-342'
p10883
S'193'
p10884
tp10885
a(S'411-971'
p10886
S'-560'
p10887
tp10888
a(S'857-35'
p10889
S'822'
p10890
tp10891
a(S'370-354'
p10892
S'16'
p10893
tp10894
a(S'533-584'
p10895
S'-51'
p10896
tp10897
a(S'43-240'
p10898
S'-197'
p10899
tp10900
a(S'703-460'
p10901
S'243'
p10902
tp10903
a(S'842-575'
p10904
S'267'
p10905
tp10906
a(S'597-891'
p10907
S'-294'
p10908
tp10909
a(S'591-694'
p10910
S'-103'
p10911
tp10912
a(S'449-689'
p10913
S'-240'
p10914
tp10915
a(S'786-177'
p10916
S'609'
p10917
tp10918
a(S'211-917'
p10919
S'-706'
p10920
tp10921
a(S'562-244'
p10922
S'318'
p10923
tp10924
a(S'33-818'
p10925
S'-785'
p10926
tp10927
a(S'878-33'
p10928
S'845'
p10929
tp10930
a(S'612-437'
p10931
S'175'
p10932
tp10933
a(S'750-541'
p10934
S'209'
p10935
tp10936
a(S'833-997'
p10937
S'-164'
p10938
tp10939
a(S'886-566'
p10940
S'320'
p10941
tp10942
a(S'686-7'
p10943
S'679'
p10944
tp10945
a(S'283-995'
p10946
S'-712'
p10947
tp10948
a(S'677-815'
p10949
S'-138'
p10950
tp10951
a(S'739-677'
p10952
S'62'
p10953
tp10954
a(S'760-855'
p10955
S'-95'
p10956
tp10957
a(S'606-322'
p10958
S'284'
p10959
tp10960
a(S'353-46'
p10961
S'307'
p10962
tp10963
a(S'79-749'
p10964
S'-670'
p10965
tp10966
a(S'167-114'
p10967
S'53'
p10968
tp10969
a(S'80-516'
p10970
S'-436'
p10971
tp10972
a(S'206-206'
p10973
g665
tp10974
a(S'610-2'
p10975
S'608'
p10976
tp10977
a(S'136-73'
p10978
S'63'
p10979
tp10980
a(S'108-410'
p10981
S'-302'
p10982
tp10983
a(S'373-931'
p10984
S'-558'
p10985
tp10986
a(S'449-251'
p10987
S'198'
p10988
tp10989
a(S'114-62'
p10990
S'52'
p10991
tp10992
a(S'357-849'
p10993
S'-492'
p10994
tp10995
a(S'827-737'
p10996
S'90'
p10997
tp10998
a(S'772-904'
p10999
S'-132'
p11000
tp11001
a(S'50-217'
p11002
S'-167'
p11003
tp11004
a(S'810-439'
p11005
S'371'
p11006
tp11007
a(S'26-928'
p11008
S'-902'
p11009
tp11010
a(S'437-555'
p11011
S'-118'
p11012
tp11013
a(S'39-1'
p11014
S'38'
p11015
tp11016
a(S'257-471'
p11017
S'-214'
p11018
tp11019
a(S'312-255'
p11020
S'57'
p11021
tp11022
a(S'706-152'
p11023
S'554'
p11024
tp11025
a(S'426-269'
p11026
S'157'
p11027
tp11028
a(S'308-534'
p11029
S'-226'
p11030
tp11031
a(S'989-225'
p11032
S'764'
p11033
tp11034
a(S'514-834'
p11035
S'-320'
p11036
tp11037
a(S'477-586'
p11038
S'-109'
p11039
tp11040
a(S'574-535'
p11041
S'39'
p11042
tp11043
a(S'582-855'
p11044
S'-273'
p11045
tp11046
a(S'973-94'
p11047
S'879'
p11048
tp11049
a(S'41-94'
p11050
S'-53'
p11051
tp11052
a(S'209-754'
p11053
S'-545'
p11054
tp11055
a(S'224-924'
p11056
S'-700'
p11057
tp11058
a(S'125-97'
p11059
S'28'
p11060
tp11061
a(S'213-265'
p11062
S'-52'
p11063
tp11064
a(S'741-261'
p11065
S'480'
p11066
tp11067
a(S'297-366'
p11068
S'-69'
p11069
tp11070
a(S'327-961'
p11071
S'-634'
p11072
tp11073
a(S'854-942'
p11074
S'-88'
p11075
tp11076
a(S'559-555'
p11077
g1966
tp11078
a(S'369-385'
p11079
S'-16'
p11080
tp11081
a(S'765-385'
p11082
S'380'
p11083
tp11084
a(S'951-319'
p11085
S'632'
p11086
tp11087
a(S'48-4'
p11088
S'44'
p11089
tp11090
a(S'320-948'
p11091
S'-628'
p11092
tp11093
a(S'519-686'
p11094
S'-167'
p11095
tp11096
a(S'342-159'
p11097
S'183'
p11098
tp11099
a(S'554-245'
p11100
S'309'
p11101
tp11102
a(S'27-600'
p11103
S'-573'
p11104
tp11105
a(S'513-564'
p11106
S'-51'
p11107
tp11108
a(S'346-586'
p11109
S'-240'
p11110
tp11111
a(S'832-926'
p11112
S'-94'
p11113
tp11114
a(S'671-399'
p11115
S'272'
p11116
tp11117
a(S'503-752'
p11118
S'-249'
p11119
tp11120
a(S'645-806'
p11121
S'-161'
p11122
tp11123
a(S'712-103'
p11124
S'609'
p11125
tp11126
a(S'673-835'
p11127
S'-162'
p11128
tp11129
a(S'741-321'
p11130
S'420'
p11131
tp11132
a(S'456-988'
p11133
S'-532'
p11134
tp11135
a(S'760-705'
p11136
S'55'
p11137
tp11138
a(S'637-510'
p11139
S'127'
p11140
tp11141
a(S'459-9'
p11142
S'450'
p11143
tp11144
a(S'419-571'
p11145
S'-152'
p11146
tp11147
a(S'589-943'
p11148
S'-354'
p11149
tp11150
a(S'935-548'
p11151
S'387'
p11152
tp11153
a(S'50-461'
p11154
S'-411'
p11155
tp11156
a(S'641-35'
p11157
S'606'
p11158
tp11159
a(S'908-470'
p11160
S'438'
p11161
tp11162
a(S'286-313'
p11163
S'-27'
p11164
tp11165
a(S'632-468'
p11166
S'164'
p11167
tp11168
a(S'626-127'
p11169
S'499'
p11170
tp11171
a(S'425-845'
p11172
S'-420'
p11173
tp11174
a(S'170-595'
p11175
S'-425'
p11176
tp11177
a(S'743-354'
p11178
S'389'
p11179
tp11180
a(S'598-579'
p11181
S'19'
p11182
tp11183
a(S'649-167'
p11184
S'482'
p11185
tp11186
a(S'697-451'
p11187
S'246'
p11188
tp11189
a(S'753-592'
p11190
S'161'
p11191
tp11192
a(S'258-484'
p11193
S'-226'
p11194
tp11195
a(S'218-191'
p11196
S'27'
p11197
tp11198
a(S'560-397'
p11199
S'163'
p11200
tp11201
a(S'847-614'
p11202
S'233'
p11203
tp11204
a(S'951-874'
p11205
S'77'
p11206
tp11207
a(S'620-335'
p11208
S'285'
p11209
tp11210
a(S'5-304'
p11211
S'-299'
p11212
tp11213
a(S'200-798'
p11214
S'-598'
p11215
tp11216
a(S'561-400'
p11217
S'161'
p11218
tp11219
a(S'181-951'
p11220
S'-770'
p11221
tp11222
a(S'176-977'
p11223
S'-801'
p11224
tp11225
a(S'247-968'
p11226
S'-721'
p11227
tp11228
a(S'763-430'
p11229
S'333'
p11230
tp11231
a(S'391-309'
p11232
S'82'
p11233
tp11234
a(S'475-38'
p11235
S'437'
p11236
tp11237
a(S'978-212'
p11238
S'766'
p11239
tp11240
a(S'469-722'
p11241
S'-253'
p11242
tp11243
a(S'413-309'
p11244
S'104'
p11245
tp11246
a(S'805-498'
p11247
S'307'
p11248
tp11249
a(S'335-404'
p11250
S'-69'
p11251
tp11252
a(S'803-102'
p11253
S'701'
p11254
tp11255
a(S'195-164'
p11256
S'31'
p11257
tp11258
a(S'334-282'
p11259
S'52'
p11260
tp11261
a(S'354-516'
p11262
S'-162'
p11263
tp11264
a(S'39-528'
p11265
S'-489'
p11266
tp11267
a(S'637-593'
p11268
S'44'
p11269
tp11270
a(S'756-150'
p11271
S'606'
p11272
tp11273
a(S'987-727'
p11274
S'260'
p11275
tp11276
a(S'99-783'
p11277
S'-684'
p11278
tp11279
a(S'120-280'
p11280
S'-160'
p11281
tp11282
a(S'74-696'
p11283
S'-622'
p11284
tp11285
a(S'339-499'
p11286
S'-160'
p11287
tp11288
a(S'30-326'
p11289
S'-296'
p11290
tp11291
a(S'832-266'
p11292
S'566'
p11293
tp11294
a(S'629-269'
p11295
S'360'
p11296
tp11297
a(S'557-462'
p11298
S'95'
p11299
tp11300
a(S'870-732'
p11301
S'138'
p11302
tp11303
a(S'884-483'
p11304
S'401'
p11305
tp11306
a(S'793-106'
p11307
S'687'
p11308
tp11309
a(S'546-635'
p11310
S'-89'
p11311
tp11312
a(S'518-60'
p11313
S'458'
p11314
tp11315
a(S'105-960'
p11316
S'-855'
p11317
tp11318
a(S'415-754'
p11319
S'-339'
p11320
tp11321
a(S'563-48'
p11322
S'515'
p11323
tp11324
a(S'88-447'
p11325
S'-359'
p11326
tp11327
a(S'658-329'
p11328
S'329'
p11329
tp11330
a(S'427-124'
p11331
S'303'
p11332
tp11333
a(S'314-654'
p11334
S'-340'
p11335
tp11336
a(S'94-779'
p11337
S'-685'
p11338
tp11339
a(S'700-400'
p11340
S'300'
p11341
tp11342
a(S'255-336'
p11343
S'-81'
p11344
tp11345
a(S'879-307'
p11346
S'572'
p11347
tp11348
a(S'522-349'
p11349
S'173'
p11350
tp11351
a(S'310-329'
p11352
S'-19'
p11353
tp11354
a(S'263-312'
p11355
S'-49'
p11356
tp11357
a(S'189-735'
p11358
S'-546'
p11359
tp11360
a(S'877-940'
p11361
S'-63'
p11362
tp11363
a(S'779-954'
p11364
S'-175'
p11365
tp11366
a(S'216-271'
p11367
S'-55'
p11368
tp11369
a(S'590-869'
p11370
S'-279'
p11371
tp11372
a(S'75-917'
p11373
S'-842'
p11374
tp11375
a(S'321-167'
p11376
S'154'
p11377
tp11378
a(S'280-945'
p11379
S'-665'
p11380
tp11381
a(S'422-904'
p11382
S'-482'
p11383
tp11384
a(S'405-213'
p11385
S'192'
p11386
tp11387
a(S'148-247'
p11388
S'-99'
p11389
tp11390
a(S'209-972'
p11391
S'-763'
p11392
tp11393
a(S'950-136'
p11394
S'814'
p11395
tp11396
a(S'929-28'
p11397
S'901'
p11398
tp11399
a(S'953-298'
p11400
S'655'
p11401
tp11402
a(S'515-549'
p11403
S'-34'
p11404
tp11405
a(S'788-100'
p11406
S'688'
p11407
tp11408
a(S'736-654'
p11409
S'82'
p11410
tp11411
a(S'922-803'
p11412
S'119'
p11413
tp11414
a(S'241-137'
p11415
S'104'
p11416
tp11417
a(S'841-70'
p11418
S'771'
p11419
tp11420
a(S'567-159'
p11421
S'408'
p11422
tp11423
a(S'291-522'
p11424
S'-231'
p11425
tp11426
a(S'962-386'
p11427
S'576'
p11428
tp11429
a(S'667-622'
p11430
S'45'
p11431
tp11432
a(S'871-147'
p11433
S'724'
p11434
tp11435
a(S'127-989'
p11436
S'-862'
p11437
tp11438
a(S'626-727'
p11439
S'-101'
p11440
tp11441
a(S'905-409'
p11442
S'496'
p11443
tp11444
a(S'908-683'
p11445
S'225'
p11446
tp11447
a(S'636-734'
p11448
S'-98'
p11449
tp11450
a(S'38-984'
p11451
S'-946'
p11452
tp11453
a(S'287-581'
p11454
S'-294'
p11455
tp11456
a(S'667-113'
p11457
S'554'
p11458
tp11459
a(S'807-855'
p11460
S'-48'
p11461
tp11462
a(S'197-399'
p11463
S'-202'
p11464
tp11465
a(S'219-883'
p11466
S'-664'
p11467
tp11468
a(S'637-577'
p11469
S'60'
p11470
tp11471
a(S'162-47'
p11472
S'115'
p11473
tp11474
a(S'599-239'
p11475
S'360'
p11476
tp11477
a(S'838-380'
p11478
S'458'
p11479
tp11480
a(S'847-697'
p11481
S'150'
p11482
tp11483
a(S'216-339'
p11484
S'-123'
p11485
tp11486
a(S'918-154'
p11487
S'764'
p11488
tp11489
a(S'330-567'
p11490
S'-237'
p11491
tp11492
a(S'280-711'
p11493
S'-431'
p11494
tp11495
a(S'371-653'
p11496
S'-282'
p11497
tp11498
a(S'180-657'
p11499
S'-477'
p11500
tp11501
a(S'15-575'
p11502
S'-560'
p11503
tp11504
a(S'282-798'
p11505
S'-516'
p11506
tp11507
a(S'268-106'
p11508
S'162'
p11509
tp11510
a(S'179-945'
p11511
S'-766'
p11512
tp11513
a(S'281-22'
p11514
S'259'
p11515
tp11516
a(S'294-874'
p11517
S'-580'
p11518
tp11519
a(S'12-61'
p11520
S'-49'
p11521
tp11522
a(S'881-82'
p11523
S'799'
p11524
tp11525
a(S'432-408'
p11526
S'24'
p11527
tp11528
a(S'948-25'
p11529
S'923'
p11530
tp11531
a(S'608-234'
p11532
S'374'
p11533
tp11534
a(S'131-217'
p11535
S'-86'
p11536
tp11537
a(S'751-516'
p11538
S'235'
p11539
tp11540
a(S'783-62'
p11541
S'721'
p11542
tp11543
a(S'659-427'
p11544
S'232'
p11545
tp11546
a(S'448-175'
p11547
S'273'
p11548
tp11549
a(S'677-205'
p11550
S'472'
p11551
tp11552
a(S'201-830'
p11553
S'-629'
p11554
tp11555
a(S'942-89'
p11556
S'853'
p11557
tp11558
a(S'633-432'
p11559
S'201'
p11560
tp11561
a(S'807-633'
p11562
S'174'
p11563
tp11564
a(S'15-173'
p11565
S'-158'
p11566
tp11567
a(S'791-50'
p11568
S'741'
p11569
tp11570
a(S'676-843'
p11571
S'-167'
p11572
tp11573
a(S'424-546'
p11574
S'-122'
p11575
tp11576
a(S'567-934'
p11577
S'-367'
p11578
tp11579
a(S'886-849'
p11580
S'37'
p11581
tp11582
a(S'204-911'
p11583
S'-707'
p11584
tp11585
a(S'142-832'
p11586
S'-690'
p11587
tp11588
a(S'796-857'
p11589
S'-61'
p11590
tp11591
a(S'656-355'
p11592
S'301'
p11593
tp11594
a(S'744-78'
p11595
S'666'
p11596
tp11597
a(S'958-626'
p11598
S'332'
p11599
tp11600
a(S'393-504'
p11601
S'-111'
p11602
tp11603
a(S'952-755'
p11604
S'197'
p11605
tp11606
a(S'375-528'
p11607
S'-153'
p11608
tp11609
a(S'589-890'
p11610
S'-301'
p11611
tp11612
a(S'545-796'
p11613
S'-251'
p11614
tp11615
a(S'653-850'
p11616
S'-197'
p11617
tp11618
a(S'966-949'
p11619
S'17'
p11620
tp11621
a(S'935-985'
p11622
S'-50'
p11623
tp11624
a(S'371-642'
p11625
S'-271'
p11626
tp11627
a(S'101-446'
p11628
S'-345'
p11629
tp11630
a(S'517-977'
p11631
S'-460'
p11632
tp11633
a(S'564-76'
p11634
S'488'
p11635
tp11636
a(S'515-286'
p11637
S'229'
p11638
tp11639
a(S'248-67'
p11640
S'181'
p11641
tp11642
a(S'490-609'
p11643
S'-119'
p11644
tp11645
a(S'140-725'
p11646
S'-585'
p11647
tp11648
a(S'170-725'
p11649
S'-555'
p11650
tp11651
a(S'27-764'
p11652
S'-737'
p11653
tp11654
a(S'779-346'
p11655
S'433'
p11656
tp11657
a(S'607-296'
p11658
S'311'
p11659
tp11660
a(S'852-66'
p11661
S'786'
p11662
tp11663
a(S'874-736'
p11664
S'138'
p11665
tp11666
a(S'503-498'
p11667
g6867
tp11668
a(S'425-935'
p11669
S'-510'
p11670
tp11671
a(S'807-362'
p11672
S'445'
p11673
tp11674
a(S'454-943'
p11675
S'-489'
p11676
tp11677
a(S'48-584'
p11678
S'-536'
p11679
tp11680
a(S'960-865'
p11681
S'95'
p11682
tp11683
a(S'519-580'
p11684
S'-61'
p11685
tp11686
a(S'850-443'
p11687
S'407'
p11688
tp11689
a(S'798-345'
p11690
S'453'
p11691
tp11692
a(S'627-904'
p11693
S'-277'
p11694
tp11695
a(S'12-618'
p11696
S'-606'
p11697
tp11698
a(S'986-87'
p11699
S'899'
p11700
tp11701
a(S'753-69'
p11702
S'684'
p11703
tp11704
a(S'443-804'
p11705
S'-361'
p11706
tp11707
a(S'287-334'
p11708
S'-47'
p11709
tp11710
a(S'835-44'
p11711
S'791'
p11712
tp11713
a(S'386-819'
p11714
S'-433'
p11715
tp11716
a(S'305-146'
p11717
S'159'
p11718
tp11719
a(S'91-760'
p11720
S'-669'
p11721
tp11722
a(S'572-621'
p11723
S'-49'
p11724
tp11725
a(S'128-744'
p11726
S'-616'
p11727
tp11728
a(S'0-226'
p11729
S'-226'
p11730
tp11731
a(S'285-84'
p11732
S'201'
p11733
tp11734
a(S'536-798'
p11735
S'-262'
p11736
tp11737
a(S'884-7'
p11738
S'877'
p11739
tp11740
a(S'223-511'
p11741
S'-288'
p11742
tp11743
a(S'647-219'
p11744
S'428'
p11745
tp11746
a(S'223-664'
p11747
S'-441'
p11748
tp11749
a(S'158-576'
p11750
S'-418'
p11751
tp11752
a(S'216-107'
p11753
S'109'
p11754
tp11755
a(S'714-851'
p11756
S'-137'
p11757
tp11758
a(S'410-74'
p11759
S'336'
p11760
tp11761
a(S'266-556'
p11762
S'-290'
p11763
tp11764
a(S'505-166'
p11765
S'339'
p11766
tp11767
a(S'123-506'
p11768
S'-383'
p11769
tp11770
a(S'708-47'
p11771
S'661'
p11772
tp11773
a(S'839-889'
p11774
S'-50'
p11775
tp11776
a(S'507-637'
p11777
S'-130'
p11778
tp11779
a(S'406-580'
p11780
S'-174'
p11781
tp11782
a(S'81-403'
p11783
S'-322'
p11784
tp11785
a(S'854-592'
p11786
S'262'
p11787
tp11788
a(S'766-772'
p11789
S'-6'
p11790
tp11791
a(S'555-203'
p11792
S'352'
p11793
tp11794
a(S'886-619'
p11795
S'267'
p11796
tp11797
a(S'195-263'
p11798
S'-68'
p11799
tp11800
a(S'170-452'
p11801
S'-282'
p11802
tp11803
a(S'432-863'
p11804
S'-431'
p11805
tp11806
a(S'230-672'
p11807
S'-442'
p11808
tp11809
a(S'247-488'
p11810
S'-241'
p11811
tp11812
a(S'354-736'
p11813
S'-382'
p11814
tp11815
a(S'327-568'
p11816
S'-241'
p11817
tp11818
a(S'863-413'
p11819
S'450'
p11820
tp11821
a(S'267-73'
p11822
S'194'
p11823
tp11824
a(S'937-199'
p11825
S'738'
p11826
tp11827
a(S'445-294'
p11828
S'151'
p11829
tp11830
a(S'399-458'
p11831
S'-59'
p11832
tp11833
a(S'244-337'
p11834
S'-93'
p11835
tp11836
a(S'534-891'
p11837
S'-357'
p11838
tp11839
a(S'21-427'
p11840
S'-406'
p11841
tp11842
a(S'777-949'
p11843
S'-172'
p11844
tp11845
a(S'797-945'
p11846
S'-148'
p11847
tp11848
a(S'563-466'
p11849
S'97'
p11850
tp11851
a(S'566-257'
p11852
S'309'
p11853
tp11854
a(S'390-52'
p11855
S'338'
p11856
tp11857
a(S'462-637'
p11858
S'-175'
p11859
tp11860
a(S'23-506'
p11861
S'-483'
p11862
tp11863
a(S'893-516'
p11864
S'377'
p11865
tp11866
a(S'263-785'
p11867
S'-522'
p11868
tp11869
a(S'335-164'
p11870
S'171'
p11871
tp11872
a(S'409-393'
p11873
S'16'
p11874
tp11875
a(S'336-896'
p11876
S'-560'
p11877
tp11878
a(S'871-761'
p11879
S'110'
p11880
tp11881
a(S'361-868'
p11882
S'-507'
p11883
tp11884
a(S'929-826'
p11885
S'103'
p11886
tp11887
a(S'889-639'
p11888
S'250'
p11889
tp11890
a(S'429-862'
p11891
S'-433'
p11892
tp11893
a(S'716-816'
p11894
S'-100'
p11895
tp11896
a(S'586-7'
p11897
S'579'
p11898
tp11899
a(S'713-214'
p11900
S'499'
p11901
tp11902
a(S'195-909'
p11903
S'-714'
p11904
tp11905
a(S'929-157'
p11906
S'772'
p11907
tp11908
a(S'403-174'
p11909
S'229'
p11910
tp11911
a(S'910-799'
p11912
S'111'
p11913
tp11914
a(S'617-797'
p11915
S'-180'
p11916
tp11917
a(S'901-761'
p11918
S'140'
p11919
tp11920
a(S'200-335'
p11921
S'-135'
p11922
tp11923
a(S'518-555'
p11924
S'-37'
p11925
tp11926
a(S'22-280'
p11927
S'-258'
p11928
tp11929
a(S'397-477'
p11930
S'-80'
p11931
tp11932
a(S'447-453'
p11933
S'-6'
p11934
tp11935
a(S'476-591'
p11936
S'-115'
p11937
tp11938
a(S'4-865'
p11939
S'-861'
p11940
tp11941
a(S'621-422'
p11942
S'199'
p11943
tp11944
a(S'667-874'
p11945
S'-207'
p11946
tp11947
a(S'443-0'
p11948
S'443'
p11949
tp11950
a(S'545-904'
p11951
S'-359'
p11952
tp11953
a(S'641-822'
p11954
S'-181'
p11955
tp11956
a(S'795-159'
p11957
S'636'
p11958
tp11959
a(S'933-320'
p11960
S'613'
p11961
tp11962
a(S'458-784'
p11963
S'-326'
p11964
tp11965
a(S'162-213'
p11966
S'-51'
p11967
tp11968
a(S'948-204'
p11969
S'744'
p11970
tp11971
a(S'604-112'
p11972
S'492'
p11973
tp11974
a(S'690-0'
p11975
S'690'
p11976
tp11977
a(S'914-996'
p11978
S'-82'
p11979
tp11980
a(S'44-943'
p11981
S'-899'
p11982
tp11983
a(S'978-345'
p11984
S'633'
p11985
tp11986
a(S'963-486'
p11987
S'477'
p11988
tp11989
a(S'947-503'
p11990
S'444'
p11991
tp11992
a(S'577-75'
p11993
S'502'
p11994
tp11995
a(S'855-179'
p11996
S'676'
p11997
tp11998
a(S'930-4'
p11999
S'926'
p12000
tp12001
a(S'27-947'
p12002
S'-920'
p12003
tp12004
a(S'797-878'
p12005
S'-81'
p12006
tp12007
a(S'954-729'
p12008
S'225'
p12009
tp12010
a(S'872-325'
p12011
S'547'
p12012
tp12013
a(S'434-850'
p12014
S'-416'
p12015
tp12016
a(S'80-585'
p12017
S'-505'
p12018
tp12019
a(S'579-265'
p12020
S'314'
p12021
tp12022
a(S'211-458'
p12023
S'-247'
p12024
tp12025
a(S'754-457'
p12026
S'297'
p12027
tp12028
a(S'145-954'
p12029
S'-809'
p12030
tp12031
a(S'977-28'
p12032
S'949'
p12033
tp12034
a(S'153-257'
p12035
S'-104'
p12036
tp12037
a(S'648-890'
p12038
S'-242'
p12039
tp12040
a(S'217-102'
p12041
S'115'
p12042
tp12043
a(S'900-731'
p12044
S'169'
p12045
tp12046
a(S'900-636'
p12047
S'264'
p12048
tp12049
a(S'28-595'
p12050
S'-567'
p12051
tp12052
a(S'338-579'
p12053
S'-241'
p12054
tp12055
a(S'284-844'
p12056
S'-560'
p12057
tp12058
a(S'101-106'
p12059
S'-5'
p12060
tp12061
a(S'783-762'
p12062
S'21'
p12063
tp12064
a(S'890-998'
p12065
S'-108'
p12066
tp12067
a(S'100-560'
p12068
S'-460'
p12069
tp12070
a(S'961-934'
p12071
S'27'
p12072
tp12073
a(S'168-124'
p12074
S'44'
p12075
tp12076
a(S'316-474'
p12077
S'-158'
p12078
tp12079
a(S'672-458'
p12080
S'214'
p12081
tp12082
a(S'158-788'
p12083
S'-630'
p12084
tp12085
a(S'599-321'
p12086
S'278'
p12087
tp12088
a(S'128-842'
p12089
S'-714'
p12090
tp12091
a(S'743-931'
p12092
S'-188'
p12093
tp12094
a(S'255-791'
p12095
S'-536'
p12096
tp12097
a(S'441-679'
p12098
S'-238'
p12099
tp12100
a(S'467-849'
p12101
S'-382'
p12102
tp12103
a(S'41-528'
p12104
S'-487'
p12105
tp12106
a(S'754-51'
p12107
S'703'
p12108
tp12109
a(S'576-515'
p12110
S'61'
p12111
tp12112
a(S'79-241'
p12113
S'-162'
p12114
tp12115
a(S'195-375'
p12116
S'-180'
p12117
tp12118
a(S'134-315'
p12119
S'-181'
p12120
tp12121
a(S'488-828'
p12122
S'-340'
p12123
tp12124
a(S'400-727'
p12125
S'-327'
p12126
tp12127
a(S'275-844'
p12128
S'-569'
p12129
tp12130
a(S'981-471'
p12131
S'510'
p12132
tp12133
a(S'184-642'
p12134
S'-458'
p12135
tp12136
a(S'143-331'
p12137
S'-188'
p12138
tp12139
a(S'812-399'
p12140
S'413'
p12141
tp12142
a(S'178-321'
p12143
S'-143'
p12144
tp12145
a(S'75-314'
p12146
S'-239'
p12147
tp12148
a(S'31-533'
p12149
S'-502'
p12150
tp12151
a(S'329-827'
p12152
S'-498'
p12153
tp12154
a(S'687-855'
p12155
S'-168'
p12156
tp12157
a(S'423-540'
p12158
S'-117'
p12159
tp12160
a(S'403-578'
p12161
S'-175'
p12162
tp12163
a(S'225-389'
p12164
S'-164'
p12165
tp12166
a(S'833-718'
p12167
S'115'
p12168
tp12169
a(S'865-607'
p12170
S'258'
p12171
tp12172
a(S'898-59'
p12173
S'839'
p12174
tp12175
a(S'763-395'
p12176
S'368'
p12177
tp12178
a(S'547-81'
p12179
S'466'
p12180
tp12181
a(S'671-449'
p12182
S'222'
p12183
tp12184
a(S'184-515'
p12185
S'-331'
p12186
tp12187
a(S'437-787'
p12188
S'-350'
p12189
tp12190
a(S'898-479'
p12191
S'419'
p12192
tp12193
a(S'549-361'
p12194
S'188'
p12195
tp12196
a(S'212-208'
p12197
g1966
tp12198
a(S'808-482'
p12199
S'326'
p12200
tp12201
a(S'21-442'
p12202
S'-421'
p12203
tp12204
a(S'926-924'
p12205
g973
tp12206
a(S'769-374'
p12207
S'395'
p12208
tp12209
a(S'911-73'
p12210
S'838'
p12211
tp12212
a(S'956-753'
p12213
S'203'
p12214
tp12215
a(S'391-992'
p12216
S'-601'
p12217
tp12218
a(S'264-513'
p12219
S'-249'
p12220
tp12221
a(S'85-410'
p12222
S'-325'
p12223
tp12224
a(S'300-856'
p12225
S'-556'
p12226
tp12227
a(S'53-318'
p12228
S'-265'
p12229
tp12230
a(S'958-752'
p12231
S'206'
p12232
tp12233
a(S'663-220'
p12234
S'443'
p12235
tp12236
a(S'247-55'
p12237
S'192'
p12238
tp12239
a(S'714-711'
p12240
g9822
tp12241
a(S'597-652'
p12242
S'-55'
p12243
tp12244
a(S'889-601'
p12245
S'288'
p12246
tp12247
a(S'500-348'
p12248
S'152'
p12249
tp12250
a(S'766-369'
p12251
S'397'
p12252
tp12253
a(S'23-198'
p12254
S'-175'
p12255
tp12256
a(S'954-631'
p12257
S'323'
p12258
tp12259
a(S'17-988'
p12260
S'-971'
p12261
tp12262
a(S'731-654'
p12263
S'77'
p12264
tp12265
a(S'158-411'
p12266
S'-253'
p12267
tp12268
a(S'365-857'
p12269
S'-492'
p12270
tp12271
a(S'699-477'
p12272
S'222'
p12273
tp12274
a(S'192-827'
p12275
S'-635'
p12276
tp12277
a(S'174-905'
p12278
S'-731'
p12279
tp12280
a(S'640-509'
p12281
S'131'
p12282
tp12283
a(S'899-78'
p12284
S'821'
p12285
tp12286
a(S'625-439'
p12287
S'186'
p12288
tp12289
a(S'355-300'
p12290
S'55'
p12291
tp12292
a(S'192-451'
p12293
S'-259'
p12294
tp12295
a(S'137-185'
p12296
S'-48'
p12297
tp12298
a(S'344-454'
p12299
S'-110'
p12300
tp12301
a(S'704-723'
p12302
S'-19'
p12303
tp12304
a(S'221-466'
p12305
S'-245'
p12306
tp12307
a(S'926-177'
p12308
S'749'
p12309
tp12310
a(S'778-523'
p12311
S'255'
p12312
tp12313
a(S'478-17'
p12314
S'461'
p12315
tp12316
a(S'892-853'
p12317
S'39'
p12318
tp12319
a(S'155-671'
p12320
S'-516'
p12321
tp12322
a(S'570-876'
p12323
S'-306'
p12324
tp12325
a(S'17-604'
p12326
S'-587'
p12327
tp12328
a(S'390-717'
p12329
S'-327'
p12330
tp12331
a(S'559-769'
p12332
S'-210'
p12333
tp12334
a(S'403-151'
p12335
S'252'
p12336
tp12337
a(S'147-645'
p12338
S'-498'
p12339
tp12340
a(S'267-587'
p12341
S'-320'
p12342
tp12343
a(S'350-264'
p12344
S'86'
p12345
tp12346
a(S'802-993'
p12347
S'-191'
p12348
tp12349
a(S'246-196'
p12350
S'50'
p12351
tp12352
a(S'843-299'
p12353
S'544'
p12354
tp12355
a(S'636-198'
p12356
S'438'
p12357
tp12358
a(S'18-360'
p12359
S'-342'
p12360
tp12361
a(S'553-200'
p12362
S'353'
p12363
tp12364
a(S'899-813'
p12365
S'86'
p12366
tp12367
a(S'991-34'
p12368
S'957'
p12369
tp12370
a(S'594-255'
p12371
S'339'
p12372
tp12373
a(S'733-152'
p12374
S'581'
p12375
tp12376
a(S'249-821'
p12377
S'-572'
p12378
tp12379
a(S'898-948'
p12380
S'-50'
p12381
tp12382
a(S'245-269'
p12383
S'-24'
p12384
tp12385
a(S'188-620'
p12386
S'-432'
p12387
tp12388
a(S'173-397'
p12389
S'-224'
p12390
tp12391
a(S'315-814'
p12392
S'-499'
p12393
tp12394
a(S'762-803'
p12395
S'-41'
p12396
tp12397
a(S'281-772'
p12398
S'-491'
p12399
tp12400
a(S'258-766'
p12401
S'-508'
p12402
tp12403
a(S'237-572'
p12404
S'-335'
p12405
tp12406
a(S'445-436'
p12407
g842
tp12408
a(S'354-722'
p12409
S'-368'
p12410
tp12411
a(S'220-808'
p12412
S'-588'
p12413
tp12414
a(S'277-296'
p12415
S'-19'
p12416
tp12417
a(S'231-952'
p12418
S'-721'
p12419
tp12420
a(S'495-959'
p12421
S'-464'
p12422
tp12423
a(S'953-498'
p12424
S'455'
p12425
tp12426
a(S'463-695'
p12427
S'-232'
p12428
tp12429
a(S'763-529'
p12430
S'234'
p12431
tp12432
a(S'978-751'
p12433
S'227'
p12434
tp12435
a(S'343-402'
p12436
S'-59'
p12437
tp12438
a(S'301-353'
p12439
S'-52'
p12440
tp12441
a(S'576-856'
p12442
S'-280'
p12443
tp12444
a(S'205-967'
p12445
S'-762'
p12446
tp12447
a(S'178-318'
p12448
S'-140'
p12449
tp12450
a(S'27-935'
p12451
S'-908'
p12452
tp12453
a(S'832-534'
p12454
S'298'
p12455
tp12456
a(S'25-802'
p12457
S'-777'
p12458
tp12459
a(S'138-823'
p12460
S'-685'
p12461
tp12462
a(S'912-146'
p12463
S'766'
p12464
tp12465
a(S'467-856'
p12466
S'-389'
p12467
tp12468
a(S'199-449'
p12469
S'-250'
p12470
tp12471
a(S'611-982'
p12472
S'-371'
p12473
tp12474
a(S'540-611'
p12475
S'-71'
p12476
tp12477
a(S'77-955'
p12478
S'-878'
p12479
tp12480
a(S'501-166'
p12481
S'335'
p12482
tp12483
a(S'407-548'
p12484
S'-141'
p12485
tp12486
a(S'424-805'
p12487
S'-381'
p12488
tp12489
a(S'869-826'
p12490
S'43'
p12491
tp12492
a(S'99-409'
p12493
S'-310'
p12494
tp12495
a(S'518-222'
p12496
S'296'
p12497
tp12498
a(S'36-527'
p12499
S'-491'
p12500
tp12501
a(S'746-203'
p12502
S'543'
p12503
tp12504
a(S'870-665'
p12505
S'205'
p12506
tp12507
a(S'834-978'
p12508
S'-144'
p12509
tp12510
a(S'183-568'
p12511
S'-385'
p12512
tp12513
a(S'684-576'
p12514
S'108'
p12515
tp12516
a(S'394-935'
p12517
S'-541'
p12518
tp12519
a(S'28-820'
p12520
S'-792'
p12521
tp12522
a(S'64-865'
p12523
S'-801'
p12524
tp12525
a(S'559-65'
p12526
S'494'
p12527
tp12528
a(S'278-422'
p12529
S'-144'
p12530
tp12531
a(S'186-605'
p12532
S'-419'
p12533
tp12534
a(S'775-195'
p12535
S'580'
p12536
tp12537
a(S'557-111'
p12538
S'446'
p12539
tp12540
a(S'416-79'
p12541
S'337'
p12542
tp12543
a(S'335-860'
p12544
S'-525'
p12545
tp12546
a(S'647-716'
p12547
S'-69'
p12548
tp12549
a(S'291-160'
p12550
S'131'
p12551
tp12552
a(S'699-66'
p12553
S'633'
p12554
tp12555
a(S'548-93'
p12556
S'455'
p12557
tp12558
a(S'402-895'
p12559
S'-493'
p12560
tp12561
a(S'33-519'
p12562
S'-486'
p12563
tp12564
a(S'80-704'
p12565
S'-624'
p12566
tp12567
a(S'604-459'
p12568
S'145'
p12569
tp12570
a(S'697-276'
p12571
S'421'
p12572
tp12573
a(S'640-364'
p12574
S'276'
p12575
tp12576
a(S'82-471'
p12577
S'-389'
p12578
tp12579
a(S'938-727'
p12580
S'211'
p12581
tp12582
a(S'489-45'
p12583
S'444'
p12584
tp12585
a(S'167-966'
p12586
S'-799'
p12587
tp12588
a(S'536-890'
p12589
S'-354'
p12590
tp12591
a(S'70-606'
p12592
S'-536'
p12593
tp12594
a(S'388-771'
p12595
S'-383'
p12596
tp12597
a(S'312-781'
p12598
S'-469'
p12599
tp12600
a(S'918-94'
p12601
S'824'
p12602
tp12603
a(S'903-917'
p12604
S'-14'
p12605
tp12606
a(S'136-328'
p12607
S'-192'
p12608
tp12609
a(S'630-422'
p12610
S'208'
p12611
tp12612
a(S'376-496'
p12613
S'-120'
p12614
tp12615
a(S'650-261'
p12616
S'389'
p12617
tp12618
a(S'135-909'
p12619
S'-774'
p12620
tp12621
a(S'697-502'
p12622
S'195'
p12623
tp12624
a(S'399-348'
p12625
S'51'
p12626
tp12627
a(S'375-859'
p12628
S'-484'
p12629
tp12630
a(S'325-776'
p12631
S'-451'
p12632
tp12633
a(S'359-252'
p12634
S'107'
p12635
tp12636
a(S'958-953'
p12637
g6867
tp12638
a(S'400-438'
p12639
S'-38'
p12640
tp12641
a(S'909-998'
p12642
S'-89'
p12643
tp12644
a(S'168-306'
p12645
S'-138'
p12646
tp12647
a(S'920-206'
p12648
S'714'
p12649
tp12650
a(S'192-112'
p12651
S'80'
p12652
tp12653
a(S'804-515'
p12654
S'289'
p12655
tp12656
a(S'932-791'
p12657
S'141'
p12658
tp12659
a(S'323-973'
p12660
S'-650'
p12661
tp12662
a(S'957-52'
p12663
S'905'
p12664
tp12665
a(S'748-838'
p12666
S'-90'
p12667
tp12668
a(S'376-775'
p12669
S'-399'
p12670
tp12671
a(S'920-854'
p12672
S'66'
p12673
tp12674
a(S'449-922'
p12675
S'-473'
p12676
tp12677
a(S'960-96'
p12678
S'864'
p12679
tp12680
a(S'851-883'
p12681
S'-32'
p12682
tp12683
a(S'867-83'
p12684
S'784'
p12685
tp12686
a(S'323-883'
p12687
S'-560'
p12688
tp12689
a(S'455-54'
p12690
S'401'
p12691
tp12692
a(S'768-667'
p12693
S'101'
p12694
tp12695
a(S'131-12'
p12696
S'119'
p12697
tp12698
a(S'840-811'
p12699
S'29'
p12700
tp12701
a(S'553-93'
p12702
S'460'
p12703
tp12704
a(S'736-934'
p12705
S'-198'
p12706
tp12707
a(S'458-671'
p12708
S'-213'
p12709
tp12710
a(S'520-455'
p12711
S'65'
p12712
tp12713
a(S'871-22'
p12714
S'849'
p12715
tp12716
a(S'437-177'
p12717
S'260'
p12718
tp12719
a(S'350-183'
p12720
S'167'
p12721
tp12722
a(S'106-994'
p12723
S'-888'
p12724
tp12725
a(S'327-497'
p12726
S'-170'
p12727
tp12728
a(S'581-643'
p12729
S'-62'
p12730
tp12731
a(S'414-894'
p12732
S'-480'
p12733
tp12734
a(S'141-559'
p12735
S'-418'
p12736
tp12737
a(S'109-74'
p12738
S'35'
p12739
tp12740
a(S'440-429'
p12741
S'11'
p12742
tp12743
a(S'920-962'
p12744
S'-42'
p12745
tp12746
a(S'680-736'
p12747
S'-56'
p12748
tp12749
a(S'141-933'
p12750
S'-792'
p12751
tp12752
a(S'841-627'
p12753
S'214'
p12754
tp12755
a(S'144-186'
p12756
S'-42'
p12757
tp12758
a(S'284-641'
p12759
S'-357'
p12760
tp12761
a(S'16-195'
p12762
S'-179'
p12763
tp12764
a(S'515-992'
p12765
S'-477'
p12766
tp12767
a(S'539-637'
p12768
S'-98'
p12769
tp12770
a(S'917-410'
p12771
S'507'
p12772
tp12773
a(S'645-765'
p12774
S'-120'
p12775
tp12776
a(S'101-256'
p12777
S'-155'
p12778
tp12779
a(S'987-902'
p12780
S'85'
p12781
tp12782
a(S'740-950'
p12783
S'-210'
p12784
tp12785
a(S'341-881'
p12786
S'-540'
p12787
tp12788
a(S'984-520'
p12789
S'464'
p12790
tp12791
a(S'629-879'
p12792
S'-250'
p12793
tp12794
a(S'475-570'
p12795
S'-95'
p12796
tp12797
a(S'621-854'
p12798
S'-233'
p12799
tp12800
a(S'269-465'
p12801
S'-196'
p12802
tp12803
a(S'597-518'
p12804
S'79'
p12805
tp12806
a(S'616-868'
p12807
S'-252'
p12808
tp12809
a(S'150-450'
p12810
S'-300'
p12811
tp12812
a(S'267-212'
p12813
S'55'
p12814
tp12815
a(S'594-849'
p12816
S'-255'
p12817
tp12818
a(S'631-165'
p12819
S'466'
p12820
tp12821
a(S'788-987'
p12822
S'-199'
p12823
tp12824
a(S'689-910'
p12825
S'-221'
p12826
tp12827
a(S'547-481'
p12828
S'66'
p12829
tp12830
a(S'513-840'
p12831
S'-327'
p12832
tp12833
a(S'529-801'
p12834
S'-272'
p12835
tp12836
a(S'418-124'
p12837
S'294'
p12838
tp12839
a(S'733-472'
p12840
S'261'
p12841
tp12842
a(S'655-853'
p12843
S'-198'
p12844
tp12845
a(S'832-486'
p12846
S'346'
p12847
tp12848
a(S'904-647'
p12849
S'257'
p12850
tp12851
a(S'408-540'
p12852
S'-132'
p12853
tp12854
a(S'880-251'
p12855
S'629'
p12856
tp12857
a(S'123-920'
p12858
S'-797'
p12859
tp12860
a(S'177-436'
p12861
S'-259'
p12862
tp12863
a(S'283-473'
p12864
S'-190'
p12865
tp12866
a(S'672-12'
p12867
S'660'
p12868
tp12869
a(S'766-431'
p12870
S'335'
p12871
tp12872
a(S'577-723'
p12873
S'-146'
p12874
tp12875
a(S'360-279'
p12876
S'81'
p12877
tp12878
a(S'108-855'
p12879
S'-747'
p12880
tp12881
a(S'176-134'
p12882
S'42'
p12883
tp12884
a(S'871-246'
p12885
S'625'
p12886
tp12887
a(S'493-597'
p12888
S'-104'
p12889
tp12890
a(S'899-665'
p12891
S'234'
p12892
tp12893
a(S'695-457'
p12894
S'238'
p12895
tp12896
a(S'571-98'
p12897
S'473'
p12898
tp12899
a(S'488-514'
p12900
S'-26'
p12901
tp12902
a(S'22-629'
p12903
S'-607'
p12904
tp12905
a(S'961-648'
p12906
S'313'
p12907
tp12908
a(S'813-301'
p12909
S'512'
p12910
tp12911
a(S'541-320'
p12912
S'221'
p12913
tp12914
a(S'817-263'
p12915
S'554'
p12916
tp12917
a(S'277-123'
p12918
S'154'
p12919
tp12920
a(S'763-113'
p12921
S'650'
p12922
tp12923
a(S'699-691'
p12924
g161
tp12925
a(S'579-788'
p12926
S'-209'
p12927
tp12928
a(S'870-67'
p12929
S'803'
p12930
tp12931
a(S'250-664'
p12932
S'-414'
p12933
tp12934
a(S'183-682'
p12935
S'-499'
p12936
tp12937
a(S'19-902'
p12938
S'-883'
p12939
tp12940
a(S'905-157'
p12941
S'748'
p12942
tp12943
a(S'222-721'
p12944
S'-499'
p12945
tp12946
a(S'480-409'
p12947
S'71'
p12948
tp12949
a(S'374-21'
p12950
S'353'
p12951
tp12952
a(S'778-334'
p12953
S'444'
p12954
tp12955
a(S'597-32'
p12956
S'565'
p12957
tp12958
a(S'729-947'
p12959
S'-218'
p12960
tp12961
a(S'899-201'
p12962
S'698'
p12963
tp12964
a(S'866-395'
p12965
S'471'
p12966
tp12967
a(S'208-398'
p12968
S'-190'
p12969
tp12970
a(S'600-234'
p12971
S'366'
p12972
tp12973
a(S'238-662'
p12974
S'-424'
p12975
tp12976
a(S'806-842'
p12977
S'-36'
p12978
tp12979
a(S'772-957'
p12980
S'-185'
p12981
tp12982
a(S'12-934'
p12983
S'-922'
p12984
tp12985
a(S'10-997'
p12986
S'-987'
p12987
tp12988
a(S'205-468'
p12989
S'-263'
p12990
tp12991
a(S'558-577'
p12992
S'-19'
p12993
tp12994
a(S'366-94'
p12995
S'272'
p12996
tp12997
a(S'283-438'
p12998
S'-155'
p12999
tp13000
a(S'867-599'
p13001
S'268'
p13002
tp13003
a(S'22-975'
p13004
S'-953'
p13005
tp13006
a(S'113-188'
p13007
S'-75'
p13008
tp13009
a(S'38-371'
p13010
S'-333'
p13011
tp13012
a(S'436-625'
p13013
S'-189'
p13014
tp13015
a(S'197-437'
p13016
S'-240'
p13017
tp13018
a(S'106-864'
p13019
S'-758'
p13020
tp13021
a(S'242-804'
p13022
S'-562'
p13023
tp13024
a(S'738-855'
p13025
S'-117'
p13026
tp13027
a(S'790-323'
p13028
S'467'
p13029
tp13030
a(S'544-856'
p13031
S'-312'
p13032
tp13033
a(S'600-17'
p13034
S'583'
p13035
tp13036
a(S'176-245'
p13037
S'-69'
p13038
tp13039
a(S'192-457'
p13040
S'-265'
p13041
tp13042
a(S'482-304'
p13043
S'178'
p13044
tp13045
a(S'884-734'
p13046
S'150'
p13047
tp13048
a(S'699-965'
p13049
S'-266'
p13050
tp13051
a(S'762-640'
p13052
S'122'
p13053
tp13054
a(S'883-688'
p13055
S'195'
p13056
tp13057
a(S'732-84'
p13058
S'648'
p13059
tp13060
a(S'978-759'
p13061
S'219'
p13062
tp13063
a(S'66-419'
p13064
S'-353'
p13065
tp13066
a(S'687-31'
p13067
S'656'
p13068
tp13069
a(S'68-59'
p13070
g842
tp13071
a(S'139-821'
p13072
S'-682'
p13073
tp13074
a(S'665-871'
p13075
S'-206'
p13076
tp13077
a(S'614-872'
p13078
S'-258'
p13079
tp13080
a(S'999-198'
p13081
S'801'
p13082
tp13083
a(S'682-375'
p13084
S'307'
p13085
tp13086
a(S'774-428'
p13087
S'346'
p13088
tp13089
a(S'603-426'
p13090
S'177'
p13091
tp13092
a(S'845-167'
p13093
S'678'
p13094
tp13095
a(S'31-624'
p13096
S'-593'
p13097
tp13098
a(S'332-96'
p13099
S'236'
p13100
tp13101
a(S'44-978'
p13102
S'-934'
p13103
tp13104
a(S'504-222'
p13105
S'282'
p13106
tp13107
a(S'64-969'
p13108
S'-905'
p13109
tp13110
a(S'783-762'
p13111
S'21'
p13112
tp13113
a(S'115-224'
p13114
S'-109'
p13115
tp13116
a(S'847-632'
p13117
S'215'
p13118
tp13119
a(S'499-814'
p13120
S'-315'
p13121
tp13122
a(S'363-607'
p13123
S'-244'
p13124
tp13125
a(S'164-678'
p13126
S'-514'
p13127
tp13128
a(S'9-945'
p13129
S'-936'
p13130
tp13131
a(S'784-910'
p13132
S'-126'
p13133
tp13134
a(S'78-630'
p13135
S'-552'
p13136
tp13137
a(S'655-937'
p13138
S'-282'
p13139
tp13140
a(S'817-878'
p13141
S'-61'
p13142
tp13143
a(S'205-540'
p13144
S'-335'
p13145
tp13146
a(S'739-378'
p13147
S'361'
p13148
tp13149
a(S'468-600'
p13150
S'-132'
p13151
tp13152
a(S'644-552'
p13153
S'92'
p13154
tp13155
a(S'29-153'
p13156
S'-124'
p13157
tp13158
a(S'718-879'
p13159
S'-161'
p13160
tp13161
a(S'58-903'
p13162
S'-845'
p13163
tp13164
a(S'18-740'
p13165
S'-722'
p13166
tp13167
a(S'971-37'
p13168
S'934'
p13169
tp13170
a(S'940-347'
p13171
S'593'
p13172
tp13173
a(S'534-682'
p13174
S'-148'
p13175
tp13176
a(S'50-862'
p13177
S'-812'
p13178
tp13179
a(S'837-136'
p13180
S'701'
p13181
tp13182
a(S'604-419'
p13183
S'185'
p13184
tp13185
a(S'679-933'
p13186
S'-254'
p13187
tp13188
a(S'217-487'
p13189
S'-270'
p13190
tp13191
a(S'563-369'
p13192
S'194'
p13193
tp13194
a(S'130-856'
p13195
S'-726'
p13196
tp13197
a(S'853-83'
p13198
S'770'
p13199
tp13200
a(S'959-372'
p13201
S'587'
p13202
tp13203
a(S'968-773'
p13204
S'195'
p13205
tp13206
a(S'370-978'
p13207
S'-608'
p13208
tp13209
a(S'718-235'
p13210
S'483'
p13211
tp13212
a(S'886-103'
p13213
S'783'
p13214
tp13215
a(S'329-439'
p13216
S'-110'
p13217
tp13218
a(S'318-998'
p13219
S'-680'
p13220
tp13221
a(S'580-653'
p13222
S'-73'
p13223
tp13224
a(S'636-268'
p13225
S'368'
p13226
tp13227
a(S'171-542'
p13228
S'-371'
p13229
tp13230
a(S'123-8'
p13231
S'115'
p13232
tp13233
a(S'846-569'
p13234
S'277'
p13235
tp13236
a(S'90-347'
p13237
S'-257'
p13238
tp13239
a(S'835-142'
p13240
S'693'
p13241
tp13242
a(S'963-9'
p13243
S'954'
p13244
tp13245
a(S'331-364'
p13246
S'-33'
p13247
tp13248
a(S'899-803'
p13249
S'96'
p13250
tp13251
a(S'978-587'
p13252
S'391'
p13253
tp13254
a(S'768-884'
p13255
S'-116'
p13256
tp13257
a(S'814-399'
p13258
S'415'
p13259
tp13260
a(S'934-411'
p13261
S'523'
p13262
tp13263
a(S'513-387'
p13264
S'126'
p13265
tp13266
a(S'800-937'
p13267
S'-137'
p13268
tp13269
a(S'758-871'
p13270
S'-113'
p13271
tp13272
a(S'332-871'
p13273
S'-539'
p13274
tp13275
a(S'577-814'
p13276
S'-237'
p13277
tp13278
a(S'771-806'
p13279
S'-35'
p13280
tp13281
a(S'20-25'
p13282
S'-5'
p13283
tp13284
a(S'615-7'
p13285
S'608'
p13286
tp13287
a(S'710-105'
p13288
S'605'
p13289
tp13290
a(S'487-935'
p13291
S'-448'
p13292
tp13293
a(S'972-354'
p13294
S'618'
p13295
tp13296
a(S'825-564'
p13297
S'261'
p13298
tp13299
a(S'314-125'
p13300
S'189'
p13301
tp13302
a(S'799-330'
p13303
S'469'
p13304
tp13305
a(S'493-688'
p13306
S'-195'
p13307
tp13308
a(S'226-485'
p13309
S'-259'
p13310
tp13311
a(S'252-631'
p13312
S'-379'
p13313
tp13314
a(S'780-31'
p13315
S'749'
p13316
tp13317
a(S'942-80'
p13318
S'862'
p13319
tp13320
a(S'775-838'
p13321
S'-63'
p13322
tp13323
a(S'867-602'
p13324
S'265'
p13325
tp13326
a(S'888-656'
p13327
S'232'
p13328
tp13329
a(S'257-178'
p13330
S'79'
p13331
tp13332
a(S'91-245'
p13333
S'-154'
p13334
tp13335
a(S'789-639'
p13336
S'150'
p13337
tp13338
a(S'7-884'
p13339
S'-877'
p13340
tp13341
a(S'16-158'
p13342
S'-142'
p13343
tp13344
a(S'16-280'
p13345
S'-264'
p13346
tp13347
a(S'873-0'
p13348
S'873'
p13349
tp13350
a(S'774-914'
p13351
S'-140'
p13352
tp13353
a(S'44-384'
p13354
S'-340'
p13355
tp13356
a(S'347-470'
p13357
S'-123'
p13358
tp13359
a(S'431-408'
p13360
S'23'
p13361
tp13362
a(S'821-537'
p13363
S'284'
p13364
tp13365
a(S'304-222'
p13366
S'82'
p13367
tp13368
a(S'519-885'
p13369
S'-366'
p13370
tp13371
a(S'961-432'
p13372
S'529'
p13373
tp13374
a(S'632-721'
p13375
S'-89'
p13376
tp13377
a(S'574-946'
p13378
S'-372'
p13379
tp13380
a(S'57-132'
p13381
S'-75'
p13382
tp13383
a(S'699-644'
p13384
S'55'
p13385
tp13386
a(S'89-21'
p13387
S'68'
p13388
tp13389
a(S'510-111'
p13390
S'399'
p13391
tp13392
a(S'980-618'
p13393
S'362'
p13394
tp13395
a(S'778-877'
p13396
S'-99'
p13397
tp13398
a(S'400-713'
p13399
S'-313'
p13400
tp13401
a(S'881-705'
p13402
S'176'
p13403
tp13404
a(S'481-495'
p13405
S'-14'
p13406
tp13407
a(S'332-213'
p13408
S'119'
p13409
tp13410
a(S'883-19'
p13411
S'864'
p13412
tp13413
a(S'67-746'
p13414
S'-679'
p13415
tp13416
a(S'91-889'
p13417
S'-798'
p13418
tp13419
a(S'525-553'
p13420
S'-28'
p13421
tp13422
a(S'7-276'
p13423
S'-269'
p13424
tp13425
a(S'636-392'
p13426
S'244'
p13427
tp13428
a(S'363-338'
p13429
S'25'
p13430
tp13431
a(S'225-736'
p13432
S'-511'
p13433
tp13434
a(S'334-330'
p13435
g1966
tp13436
a(S'23-133'
p13437
S'-110'
p13438
tp13439
a(S'223-219'
p13440
g1966
tp13441
a(S'387-685'
p13442
S'-298'
p13443
tp13444
a(S'108-409'
p13445
S'-301'
p13446
tp13447
a(S'730-470'
p13448
S'260'
p13449
tp13450
a(S'930-734'
p13451
S'196'
p13452
tp13453
a(S'189-885'
p13454
S'-696'
p13455
tp13456
a(S'126-639'
p13457
S'-513'
p13458
tp13459
a(S'42-891'
p13460
S'-849'
p13461
tp13462
a(S'182-61'
p13463
S'121'
p13464
tp13465
a(S'261-264'
p13466
S'-3'
p13467
tp13468
a(S'852-402'
p13469
S'450'
p13470
tp13471
a(S'655-528'
p13472
S'127'
p13473
tp13474
a(S'136-184'
p13475
S'-48'
p13476
tp13477
a(S'915-332'
p13478
S'583'
p13479
tp13480
a(S'721-243'
p13481
S'478'
p13482
tp13483
a(S'375-579'
p13484
S'-204'
p13485
tp13486
a(S'710-258'
p13487
S'452'
p13488
tp13489
a(S'989-736'
p13490
S'253'
p13491
tp13492
a(S'892-267'
p13493
S'625'
p13494
tp13495
a(S'329-389'
p13496
S'-60'
p13497
tp13498
a(S'771-519'
p13499
S'252'
p13500
tp13501
a(S'618-62'
p13502
S'556'
p13503
tp13504
a(S'131-843'
p13505
S'-712'
p13506
tp13507
a(S'861-13'
p13508
S'848'
p13509
tp13510
a(S'304-248'
p13511
S'56'
p13512
tp13513
a(S'757-748'
p13514
g842
tp13515
a(S'201-105'
p13516
S'96'
p13517
tp13518
a(S'696-470'
p13519
S'226'
p13520
tp13521
a(S'691-274'
p13522
S'417'
p13523
tp13524
a(S'467-150'
p13525
S'317'
p13526
tp13527
a(S'913-532'
p13528
S'381'
p13529
tp13530
a(S'211-638'
p13531
S'-427'
p13532
tp13533
a(S'933-949'
p13534
S'-16'
p13535
tp13536
a(S'179-642'
p13537
S'-463'
p13538
tp13539
a(S'96-230'
p13540
S'-134'
p13541
tp13542
a(S'764-166'
p13543
S'598'
p13544
tp13545
a(S'129-761'
p13546
S'-632'
p13547
tp13548
a(S'794-650'
p13549
S'144'
p13550
tp13551
a(S'24-365'
p13552
S'-341'
p13553
tp13554
a(S'780-65'
p13555
S'715'
p13556
tp13557
a(S'979-955'
p13558
S'24'
p13559
tp13560
a(S'688-741'
p13561
S'-53'
p13562
tp13563
a(S'207-478'
p13564
S'-271'
p13565
tp13566
a(S'141-890'
p13567
S'-749'
p13568
tp13569
a(S'663-758'
p13570
S'-95'
p13571
tp13572
a(S'483-141'
p13573
S'342'
p13574
tp13575
a(S'431-178'
p13576
S'253'
p13577
tp13578
a(S'544-137'
p13579
S'407'
p13580
tp13581
a(S'695-575'
p13582
S'120'
p13583
tp13584
a(S'524-952'
p13585
S'-428'
p13586
tp13587
a(S'84-254'
p13588
S'-170'
p13589
tp13590
a(S'348-893'
p13591
S'-545'
p13592
tp13593
a(S'247-239'
p13594
g161
tp13595
a(S'830-418'
p13596
S'412'
p13597
tp13598
a(S'190-127'
p13599
S'63'
p13600
tp13601
a(S'654-2'
p13602
S'652'
p13603
tp13604
a(S'391-931'
p13605
S'-540'
p13606
tp13607
a(S'171-110'
p13608
S'61'
p13609
tp13610
a(S'176-71'
p13611
S'105'
p13612
tp13613
a(S'930-328'
p13614
S'602'
p13615
tp13616
a(S'117-112'
p13617
g6867
tp13618
a(S'786-536'
p13619
S'250'
p13620
tp13621
a(S'665-505'
p13622
S'160'
p13623
tp13624
a(S'731-515'
p13625
S'216'
p13626
tp13627
a(S'267-511'
p13628
S'-244'
p13629
tp13630
a(S'353-605'
p13631
S'-252'
p13632
tp13633
a(S'1-610'
p13634
S'-609'
p13635
tp13636
a(S'226-799'
p13637
S'-573'
p13638
tp13639
a(S'363-240'
p13640
S'123'
p13641
tp13642
a(S'37-271'
p13643
S'-234'
p13644
tp13645
a(S'528-965'
p13646
S'-437'
p13647
tp13648
a(S'229-119'
p13649
S'110'
p13650
tp13651
a(S'55-787'
p13652
S'-732'
p13653
tp13654
a(S'741-716'
p13655
S'25'
p13656
tp13657
a(S'326-334'
p13658
S'-8'
p13659
tp13660
a(S'349-904'
p13661
S'-555'
p13662
tp13663
a(S'874-990'
p13664
S'-116'
p13665
tp13666
a(S'303-819'
p13667
S'-516'
p13668
tp13669
a(S'495-53'
p13670
S'442'
p13671
tp13672
a(S'298-290'
p13673
g161
tp13674
a(S'678-448'
p13675
S'230'
p13676
tp13677
a(S'496-191'
p13678
S'305'
p13679
tp13680
a(S'863-469'
p13681
S'394'
p13682
tp13683
a(S'644-217'
p13684
S'427'
p13685
tp13686
a(S'996-667'
p13687
S'329'
p13688
tp13689
a(S'42-808'
p13690
S'-766'
p13691
tp13692
a(S'698-500'
p13693
S'198'
p13694
tp13695
a(S'455-995'
p13696
S'-540'
p13697
tp13698
a(S'657-619'
p13699
S'38'
p13700
tp13701
a(S'864-367'
p13702
S'497'
p13703
tp13704
a(S'247-341'
p13705
S'-94'
p13706
tp13707
a(S'747-318'
p13708
S'429'
p13709
tp13710
a(S'511-548'
p13711
S'-37'
p13712
tp13713
a(S'724-116'
p13714
S'608'
p13715
tp13716
a(S'651-325'
p13717
S'326'
p13718
tp13719
a(S'811-449'
p13720
S'362'
p13721
tp13722
a(S'413-772'
p13723
S'-359'
p13724
tp13725
a(S'408-819'
p13726
S'-411'
p13727
tp13728
a(S'888-506'
p13729
S'382'
p13730
tp13731
a(S'834-720'
p13732
S'114'
p13733
tp13734
a(S'16-99'
p13735
S'-83'
p13736
tp13737
a(S'252-73'
p13738
S'179'
p13739
tp13740
a(S'532-850'
p13741
S'-318'
p13742
tp13743
a(S'483-919'
p13744
S'-436'
p13745
tp13746
a(S'955-162'
p13747
S'793'
p13748
tp13749
a(S'84-693'
p13750
S'-609'
p13751
tp13752
a(S'692-189'
p13753
S'503'
p13754
tp13755
a(S'698-524'
p13756
S'174'
p13757
tp13758
a(S'752-947'
p13759
S'-195'
p13760
tp13761
a(S'369-918'
p13762
S'-549'
p13763
tp13764
a(S'439-247'
p13765
S'192'
p13766
tp13767
a(S'1-126'
p13768
S'-125'
p13769
tp13770
a(S'614-484'
p13771
S'130'
p13772
tp13773
a(S'489-765'
p13774
S'-276'
p13775
tp13776
a(S'508-148'
p13777
S'360'
p13778
tp13779
a(S'256-180'
p13780
S'76'
p13781
tp13782
a(S'662-190'
p13783
S'472'
p13784
tp13785
a(S'677-343'
p13786
S'334'
p13787
tp13788
a(S'422-292'
p13789
S'130'
p13790
tp13791
a(S'658-233'
p13792
S'425'
p13793
tp13794
a(S'898-457'
p13795
S'441'
p13796
tp13797
a(S'609-694'
p13798
S'-85'
p13799
tp13800
a(S'22-846'
p13801
S'-824'
p13802
tp13803
a(S'222-504'
p13804
S'-282'
p13805
tp13806
a(S'846-193'
p13807
S'653'
p13808
tp13809
a(S'335-951'
p13810
S'-616'
p13811
tp13812
a(S'734-484'
p13813
S'250'
p13814
tp13815
a(S'916-6'
p13816
S'910'
p13817
tp13818
a(S'801-473'
p13819
S'328'
p13820
tp13821
a(S'6-751'
p13822
S'-745'
p13823
tp13824
a(S'390-32'
p13825
S'358'
p13826
tp13827
a(S'100-789'
p13828
S'-689'
p13829
tp13830
a(S'347-448'
p13831
S'-101'
p13832
tp13833
a(S'284-246'
p13834
S'38'
p13835
tp13836
a(S'848-342'
p13837
S'506'
p13838
tp13839
a(S'670-653'
p13840
S'17'
p13841
tp13842
a(S'437-964'
p13843
S'-527'
p13844
tp13845
a(S'429-484'
p13846
S'-55'
p13847
tp13848
a(S'927-84'
p13849
S'843'
p13850
tp13851
a(S'844-798'
p13852
S'46'
p13853
tp13854
a(S'875-781'
p13855
S'94'
p13856
tp13857
a(S'423-372'
p13858
S'51'
p13859
tp13860
a(S'598-205'
p13861
S'393'
p13862
tp13863
a(S'937-48'
p13864
S'889'
p13865
tp13866
a(S'361-688'
p13867
S'-327'
p13868
tp13869
a(S'423-982'
p13870
S'-559'
p13871
tp13872
a(S'732-245'
p13873
S'487'
p13874
tp13875
a(S'340-35'
p13876
S'305'
p13877
tp13878
a(S'84-672'
p13879
S'-588'
p13880
tp13881
a(S'549-357'
p13882
S'192'
p13883
tp13884
a(S'230-918'
p13885
S'-688'
p13886
tp13887
a(S'378-824'
p13888
S'-446'
p13889
tp13890
a(S'478-355'
p13891
S'123'
p13892
tp13893
a(S'329-235'
p13894
S'94'
p13895
tp13896
a(S'578-240'
p13897
S'338'
p13898
tp13899
a(S'961-159'
p13900
S'802'
p13901
tp13902
a(S'626-527'
p13903
S'99'
p13904
tp13905
a(S'145-603'
p13906
S'-458'
p13907
tp13908
a(S'27-283'
p13909
S'-256'
p13910
tp13911
a(S'205-163'
p13912
S'42'
p13913
tp13914
a(S'863-480'
p13915
S'383'
p13916
tp13917
a(S'648-61'
p13918
S'587'
p13919
tp13920
a(S'275-256'
p13921
S'19'
p13922
tp13923
a(S'451-214'
p13924
S'237'
p13925
tp13926
a(S'824-398'
p13927
S'426'
p13928
tp13929
a(S'611-319'
p13930
S'292'
p13931
tp13932
a(S'476-685'
p13933
S'-209'
p13934
tp13935
a(S'546-988'
p13936
S'-442'
p13937
tp13938
a(S'678-718'
p13939
S'-40'
p13940
tp13941
a(S'723-15'
p13942
S'708'
p13943
tp13944
a(S'545-357'
p13945
S'188'
p13946
tp13947
a(S'24-249'
p13948
S'-225'
p13949
tp13950
a(S'846-102'
p13951
S'744'
p13952
tp13953
a(S'334-935'
p13954
S'-601'
p13955
tp13956
a(S'657-971'
p13957
S'-314'
p13958
tp13959
a(S'220-530'
p13960
S'-310'
p13961
tp13962
a(S'985-901'
p13963
S'84'
p13964
tp13965
a(S'572-844'
p13966
S'-272'
p13967
tp13968
a(S'609-609'
p13969
g665
tp13970
a(S'555-178'
p13971
S'377'
p13972
tp13973
a(S'40-792'
p13974
S'-752'
p13975
tp13976
a(S'580-434'
p13977
S'146'
p13978
tp13979
a(S'897-886'
p13980
S'11'
p13981
tp13982
a(S'243-367'
p13983
S'-124'
p13984
tp13985
a(S'176-131'
p13986
S'45'
p13987
tp13988
a(S'840-915'
p13989
S'-75'
p13990
tp13991
a(S'157-851'
p13992
S'-694'
p13993
tp13994
a(S'243-310'
p13995
S'-67'
p13996
tp13997
a(S'4-851'
p13998
S'-847'
p13999
tp14000
a(S'803-151'
p14001
S'652'
p14002
tp14003
a(S'704-995'
p14004
S'-291'
p14005
tp14006
a(S'522-994'
p14007
S'-472'
p14008
tp14009
a(S'241-973'
p14010
S'-732'
p14011
tp14012
a(S'440-668'
p14013
S'-228'
p14014
tp14015
a(S'44-128'
p14016
S'-84'
p14017
tp14018
a(S'161-620'
p14019
S'-459'
p14020
tp14021
a(S'0-644'
p14022
S'-644'
p14023
tp14024
a(S'800-13'
p14025
S'787'
p14026
tp14027
a(S'702-137'
p14028
S'565'
p14029
tp14030
a(S'699-492'
p14031
S'207'
p14032
tp14033
a(S'985-533'
p14034
S'452'
p14035
tp14036
a(S'213-692'
p14037
S'-479'
p14038
tp14039
a(S'537-458'
p14040
S'79'
p14041
tp14042
a(S'351-103'
p14043
S'248'
p14044
tp14045
a(S'967-399'
p14046
S'568'
p14047
tp14048
a(S'992-175'
p14049
S'817'
p14050
tp14051
a(S'751-849'
p14052
S'-98'
p14053
tp14054
a(S'762-196'
p14055
S'566'
p14056
tp14057
a(S'604-25'
p14058
S'579'
p14059
tp14060
a(S'127-108'
p14061
S'19'
p14062
tp14063
a(S'64-493'
p14064
S'-429'
p14065
tp14066
a(S'912-867'
p14067
S'45'
p14068
tp14069
a(S'481-832'
p14070
S'-351'
p14071
tp14072
a(S'163-84'
p14073
S'79'
p14074
tp14075
a(S'496-173'
p14076
S'323'
p14077
tp14078
a(S'734-400'
p14079
S'334'
p14080
tp14081
a(S'572-339'
p14082
S'233'
p14083
tp14084
a(S'739-81'
p14085
S'658'
p14086
tp14087
a(S'636-163'
p14088
S'473'
p14089
tp14090
a(S'972-692'
p14091
S'280'
p14092
tp14093
a(S'168-508'
p14094
S'-340'
p14095
tp14096
a(S'325-850'
p14097
S'-525'
p14098
tp14099
a(S'728-489'
p14100
S'239'
p14101
tp14102
a(S'513-536'
p14103
S'-23'
p14104
tp14105
a(S'751-407'
p14106
S'344'
p14107
tp14108
a(S'853-577'
p14109
S'276'
p14110
tp14111
a(S'856-572'
p14112
S'284'
p14113
tp14114
a(S'492-795'
p14115
S'-303'
p14116
tp14117
a(S'601-25'
p14118
S'576'
p14119
tp14120
a(S'796-761'
p14121
S'35'
p14122
tp14123
a(S'191-841'
p14124
S'-650'
p14125
tp14126
a(S'655-990'
p14127
S'-335'
p14128
tp14129
a(S'12-584'
p14130
S'-572'
p14131
tp14132
a(S'331-930'
p14133
S'-599'
p14134
tp14135
a(S'456-883'
p14136
S'-427'
p14137
tp14138
a(S'540-167'
p14139
S'373'
p14140
tp14141
a(S'225-242'
p14142
S'-17'
p14143
tp14144
a(S'999-234'
p14145
S'765'
p14146
tp14147
a(S'783-809'
p14148
S'-26'
p14149
tp14150
a(S'156-458'
p14151
S'-302'
p14152
tp14153
a(S'213-690'
p14154
S'-477'
p14155
tp14156
a(S'954-182'
p14157
S'772'
p14158
tp14159
a(S'873-396'
p14160
S'477'
p14161
tp14162
a(S'547-539'
p14163
g161
tp14164
a(S'917-468'
p14165
S'449'
p14166
tp14167
a(S'78-775'
p14168
S'-697'
p14169
tp14170
a(S'140-232'
p14171
S'-92'
p14172
tp14173
a(S'424-45'
p14174
S'379'
p14175
tp14176
a(S'925-475'
p14177
S'450'
p14178
tp14179
a(S'764-667'
p14180
S'97'
p14181
tp14182
a(S'416-919'
p14183
S'-503'
p14184
tp14185
a(S'913-445'
p14186
S'468'
p14187
tp14188
a(S'893-887'
p14189
g4125
tp14190
a(S'719-3'
p14191
S'716'
p14192
tp14193
a(S'413-284'
p14194
S'129'
p14195
tp14196
a(S'243-213'
p14197
S'30'
p14198
tp14199
a(S'229-694'
p14200
S'-465'
p14201
tp14202
a(S'961-175'
p14203
S'786'
p14204
tp14205
a(S'796-294'
p14206
S'502'
p14207
tp14208
a(S'762-952'
p14209
S'-190'
p14210
tp14211
a(S'677-912'
p14212
S'-235'
p14213
tp14214
a(S'321-722'
p14215
S'-401'
p14216
tp14217
a(S'381-398'
p14218
S'-17'
p14219
tp14220
a(S'217-232'
p14221
S'-15'
p14222
tp14223
a(S'748-630'
p14224
S'118'
p14225
tp14226
a(S'46-314'
p14227
S'-268'
p14228
tp14229
a(S'562-88'
p14230
S'474'
p14231
tp14232
a(S'169-774'
p14233
S'-605'
p14234
tp14235
a(S'667-725'
p14236
S'-58'
p14237
tp14238
a(S'138-624'
p14239
S'-486'
p14240
tp14241
a(S'723-910'
p14242
S'-187'
p14243
tp14244
a(S'918-528'
p14245
S'390'
p14246
tp14247
a(S'426-902'
p14248
S'-476'
p14249
tp14250
a(S'802-951'
p14251
S'-149'
p14252
tp14253
a(S'501-740'
p14254
S'-239'
p14255
tp14256
a(S'404-570'
p14257
S'-166'
p14258
tp14259
a(S'169-17'
p14260
S'152'
p14261
tp14262
a(S'61-428'
p14263
S'-367'
p14264
tp14265
a(S'588-420'
p14266
S'168'
p14267
tp14268
a(S'929-141'
p14269
S'788'
p14270
tp14271
a(S'162-827'
p14272
S'-665'
p14273
tp14274
a(S'588-463'
p14275
S'125'
p14276
tp14277
a(S'214-475'
p14278
S'-261'
p14279
tp14280
a(S'59-863'
p14281
S'-804'
p14282
tp14283
a(S'117-984'
p14284
S'-867'
p14285
tp14286
a(S'697-496'
p14287
S'201'
p14288
tp14289
a(S'973-107'
p14290
S'866'
p14291
tp14292
a(S'70-182'
p14293
S'-112'
p14294
tp14295
a(S'788-115'
p14296
S'673'
p14297
tp14298
a(S'343-440'
p14299
S'-97'
p14300
tp14301
a(S'124-853'
p14302
S'-729'
p14303
tp14304
a(S'224-916'
p14305
S'-692'
p14306
tp14307
a(S'538-264'
p14308
S'274'
p14309
tp14310
a(S'374-924'
p14311
S'-550'
p14312
tp14313
a(S'449-10'
p14314
S'439'
p14315
tp14316
a(S'397-364'
p14317
S'33'
p14318
tp14319
a(S'828-999'
p14320
S'-171'
p14321
tp14322
a(S'355-46'
p14323
S'309'
p14324
tp14325
a(S'466-434'
p14326
S'32'
p14327
tp14328
a(S'259-859'
p14329
S'-600'
p14330
tp14331
a(S'657-397'
p14332
S'260'
p14333
tp14334
a(S'926-41'
p14335
S'885'
p14336
tp14337
a(S'286-396'
p14338
S'-110'
p14339
tp14340
a(S'475-851'
p14341
S'-376'
p14342
tp14343
a(S'305-895'
p14344
S'-590'
p14345
tp14346
a(S'296-449'
p14347
S'-153'
p14348
tp14349
a(S'82-213'
p14350
S'-131'
p14351
tp14352
a(S'757-767'
p14353
S'-10'
p14354
tp14355
a(S'702-965'
p14356
S'-263'
p14357
tp14358
a(S'350-123'
p14359
S'227'
p14360
tp14361
a(S'744-526'
p14362
S'218'
p14363
tp14364
a(S'709-48'
p14365
S'661'
p14366
tp14367
a(S'878-727'
p14368
S'151'
p14369
tp14370
a(S'480-332'
p14371
S'148'
p14372
tp14373
a(S'846-474'
p14374
S'372'
p14375
tp14376
a(S'629-984'
p14377
S'-355'
p14378
tp14379
a(S'445-80'
p14380
S'365'
p14381
tp14382
a(S'827-822'
p14383
g6867
tp14384
a(S'664-398'
p14385
S'266'
p14386
tp14387
a(S'905-848'
p14388
S'57'
p14389
tp14390
a(S'339-181'
p14391
S'158'
p14392
tp14393
a(S'633-431'
p14394
S'202'
p14395
tp14396
a(S'462-768'
p14397
S'-306'
p14398
tp14399
a(S'816-765'
p14400
S'51'
p14401
tp14402
a(S'454-54'
p14403
S'400'
p14404
tp14405
a(S'825-633'
p14406
S'192'
p14407
tp14408
a(S'68-168'
p14409
S'-100'
p14410
tp14411
a(S'806-577'
p14412
S'229'
p14413
tp14414
a(S'540-754'
p14415
S'-214'
p14416
tp14417
a(S'718-120'
p14418
S'598'
p14419
tp14420
a(S'725-201'
p14421
S'524'
p14422
tp14423
a(S'534-570'
p14424
S'-36'
p14425
tp14426
a(S'237-45'
p14427
S'192'
p14428
tp14429
a(S'254-556'
p14430
S'-302'
p14431
tp14432
a(S'906-14'
p14433
S'892'
p14434
tp14435
a(S'978-732'
p14436
S'246'
p14437
tp14438
a(S'787-270'
p14439
S'517'
p14440
tp14441
a(S'787-699'
p14442
S'88'
p14443
tp14444
a(S'228-670'
p14445
S'-442'
p14446
tp14447
a(S'86-638'
p14448
S'-552'
p14449
tp14450
a(S'894-134'
p14451
S'760'
p14452
tp14453
a(S'299-21'
p14454
S'278'
p14455
tp14456
a(S'112-384'
p14457
S'-272'
p14458
tp14459
a(S'955-514'
p14460
S'441'
p14461
tp14462
a(S'267-474'
p14463
S'-207'
p14464
tp14465
a(S'240-687'
p14466
S'-447'
p14467
tp14468
a(S'103-981'
p14469
S'-878'
p14470
tp14471
a(S'871-658'
p14472
S'213'
p14473
tp14474
a(S'702-288'
p14475
S'414'
p14476
tp14477
a(S'699-762'
p14478
S'-63'
p14479
tp14480
a(S'309-28'
p14481
S'281'
p14482
tp14483
a(S'766-456'
p14484
S'310'
p14485
tp14486
a(S'472-319'
p14487
S'153'
p14488
tp14489
a(S'205-807'
p14490
S'-602'
p14491
tp14492
a(S'53-153'
p14493
S'-100'
p14494
tp14495
a(S'242-392'
p14496
S'-150'
p14497
tp14498
a(S'290-715'
p14499
S'-425'
p14500
tp14501
a(S'571-492'
p14502
S'79'
p14503
tp14504
a(S'338-45'
p14505
S'293'
p14506
tp14507
a(S'811-9'
p14508
S'802'
p14509
tp14510
a(S'247-532'
p14511
S'-285'
p14512
tp14513
a(S'181-315'
p14514
S'-134'
p14515
tp14516
a(S'836-615'
p14517
S'221'
p14518
tp14519
a(S'677-586'
p14520
S'91'
p14521
tp14522
a(S'786-878'
p14523
S'-92'
p14524
tp14525
a(S'609-165'
p14526
S'444'
p14527
tp14528
a(S'501-904'
p14529
S'-403'
p14530
tp14531
a(S'812-872'
p14532
S'-60'
p14533
tp14534
a(S'158-199'
p14535
S'-41'
p14536
tp14537
a(S'955-652'
p14538
S'303'
p14539
tp14540
a(S'230-617'
p14541
S'-387'
p14542
tp14543
a(S'305-385'
p14544
S'-80'
p14545
tp14546
a(S'214-346'
p14547
S'-132'
p14548
tp14549
a(S'660-319'
p14550
S'341'
p14551
tp14552
a(S'250-154'
p14553
S'96'
p14554
tp14555
a(S'54-161'
p14556
S'-107'
p14557
tp14558
a(S'638-461'
p14559
S'177'
p14560
tp14561
a(S'407-478'
p14562
S'-71'
p14563
tp14564
a(S'111-66'
p14565
S'45'
p14566
tp14567
a(S'784-932'
p14568
S'-148'
p14569
tp14570
a(S'148-845'
p14571
S'-697'
p14572
tp14573
a(S'857-666'
p14574
S'191'
p14575
tp14576
a(S'621-588'
p14577
S'33'
p14578
tp14579
a(S'348-818'
p14580
S'-470'
p14581
tp14582
a(S'238-475'
p14583
S'-237'
p14584
tp14585
a(S'713-732'
p14586
S'-19'
p14587
tp14588
a(S'225-143'
p14589
S'82'
p14590
tp14591
a(S'165-399'
p14592
S'-234'
p14593
tp14594
a(S'865-235'
p14595
S'630'
p14596
tp14597
a(S'772-919'
p14598
S'-147'
p14599
tp14600
a(S'915-279'
p14601
S'636'
p14602
tp14603
a(S'15-240'
p14604
S'-225'
p14605
tp14606
a(S'190-306'
p14607
S'-116'
p14608
tp14609
a(S'289-692'
p14610
S'-403'
p14611
tp14612
a(S'159-111'
p14613
S'48'
p14614
tp14615
a(S'841-48'
p14616
S'793'
p14617
tp14618
a(S'176-51'
p14619
S'125'
p14620
tp14621
a(S'158-361'
p14622
S'-203'
p14623
tp14624
a(S'672-866'
p14625
S'-194'
p14626
tp14627
a(S'622-594'
p14628
S'28'
p14629
tp14630
a(S'769-545'
p14631
S'224'
p14632
tp14633
a(S'351-512'
p14634
S'-161'
p14635
tp14636
a(S'200-688'
p14637
S'-488'
p14638
tp14639
a(S'246-861'
p14640
S'-615'
p14641
tp14642
a(S'73-332'
p14643
S'-259'
p14644
tp14645
a(S'289-52'
p14646
S'237'
p14647
tp14648
a(S'391-567'
p14649
S'-176'
p14650
tp14651
a(S'753-51'
p14652
S'702'
p14653
tp14654
a(S'594-160'
p14655
S'434'
p14656
tp14657
a(S'803-800'
p14658
g9822
tp14659
a(S'322-517'
p14660
S'-195'
p14661
tp14662
a(S'278-172'
p14663
S'106'
p14664
tp14665
a(S'792-68'
p14666
S'724'
p14667
tp14668
a(S'88-989'
p14669
S'-901'
p14670
tp14671
a(S'450-520'
p14672
S'-70'
p14673
tp14674
a(S'146-857'
p14675
S'-711'
p14676
tp14677
a(S'768-152'
p14678
S'616'
p14679
tp14680
a(S'946-562'
p14681
S'384'
p14682
tp14683
a(S'696-494'
p14684
S'202'
p14685
tp14686
a(S'817-169'
p14687
S'648'
p14688
tp14689
a(S'406-545'
p14690
S'-139'
p14691
tp14692
a(S'404-679'
p14693
S'-275'
p14694
tp14695
a(S'422-5'
p14696
S'417'
p14697
tp14698
a(S'689-706'
p14699
S'-17'
p14700
tp14701
a(S'208-415'
p14702
S'-207'
p14703
tp14704
a(S'751-353'
p14705
S'398'
p14706
tp14707
a(S'110-373'
p14708
S'-263'
p14709
tp14710
a(S'682-671'
p14711
S'11'
p14712
tp14713
a(S'895-39'
p14714
S'856'
p14715
tp14716
a(S'216-234'
p14717
S'-18'
p14718
tp14719
a(S'572-839'
p14720
S'-267'
p14721
tp14722
a(S'468-307'
p14723
S'161'
p14724
tp14725
a(S'811-357'
p14726
S'454'
p14727
tp14728
a(S'588-846'
p14729
S'-258'
p14730
tp14731
a(S'986-796'
p14732
S'190'
p14733
tp14734
a(S'647-406'
p14735
S'241'
p14736
tp14737
a(S'772-32'
p14738
S'740'
p14739
tp14740
a(S'308-378'
p14741
S'-70'
p14742
tp14743
a(S'546-330'
p14744
S'216'
p14745
tp14746
a(S'891-658'
p14747
S'233'
p14748
tp14749
a(S'2-27'
p14750
S'-25'
p14751
tp14752
a(S'472-350'
p14753
S'122'
p14754
tp14755
a(S'446-294'
p14756
S'152'
p14757
tp14758
a(S'803-548'
p14759
S'255'
p14760
tp14761
a(S'14-379'
p14762
S'-365'
p14763
tp14764
a(S'41-713'
p14765
S'-672'
p14766
tp14767
a(S'914-467'
p14768
S'447'
p14769
tp14770
a(S'933-134'
p14771
S'799'
p14772
tp14773
a(S'705-539'
p14774
S'166'
p14775
tp14776
a(S'994-487'
p14777
S'507'
p14778
tp14779
a(S'956-305'
p14780
S'651'
p14781
tp14782
a(S'471-574'
p14783
S'-103'
p14784
tp14785
a(S'930-470'
p14786
S'460'
p14787
tp14788
a(S'481-786'
p14789
S'-305'
p14790
tp14791
a(S'826-367'
p14792
S'459'
p14793
tp14794
a(S'843-237'
p14795
S'606'
p14796
tp14797
a(S'777-458'
p14798
S'319'
p14799
tp14800
a(S'373-424'
p14801
S'-51'
p14802
tp14803
a(S'783-701'
p14804
S'82'
p14805
tp14806
a(S'724-225'
p14807
S'499'
p14808
tp14809
a(S'251-464'
p14810
S'-213'
p14811
tp14812
a(S'957-15'
p14813
S'942'
p14814
tp14815
a(S'846-460'
p14816
S'386'
p14817
tp14818
a(S'639-5'
p14819
S'634'
p14820
tp14821
a(S'540-429'
p14822
S'111'
p14823
tp14824
a(S'77-99'
p14825
S'-22'
p14826
tp14827
a(S'598-556'
p14828
S'42'
p14829
tp14830
a(S'119-137'
p14831
S'-18'
p14832
tp14833
a(S'73-163'
p14834
S'-90'
p14835
tp14836
a(S'174-120'
p14837
S'54'
p14838
tp14839
a(S'574-711'
p14840
S'-137'
p14841
tp14842
a(S'125-971'
p14843
S'-846'
p14844
tp14845
a(S'516-717'
p14846
S'-201'
p14847
tp14848
a(S'514-871'
p14849
S'-357'
p14850
tp14851
a(S'254-393'
p14852
S'-139'
p14853
tp14854
a(S'398-691'
p14855
S'-293'
p14856
tp14857
a(S'277-178'
p14858
S'99'
p14859
tp14860
a(S'479-190'
p14861
S'289'
p14862
tp14863
a(S'363-731'
p14864
S'-368'
p14865
tp14866
a(S'329-370'
p14867
S'-41'
p14868
tp14869
a(S'212-310'
p14870
S'-98'
p14871
tp14872
a(S'233-505'
p14873
S'-272'
p14874
tp14875
a(S'175-249'
p14876
S'-74'
p14877
tp14878
a(S'22-419'
p14879
S'-397'
p14880
tp14881
a(S'588-349'
p14882
S'239'
p14883
tp14884
a(S'1-528'
p14885
S'-527'
p14886
tp14887
a(S'751-672'
p14888
S'79'
p14889
tp14890
a(S'545-969'
p14891
S'-424'
p14892
tp14893
a(S'318-794'
p14894
S'-476'
p14895
tp14896
a(S'338-489'
p14897
S'-151'
p14898
tp14899
a(S'578-936'
p14900
S'-358'
p14901
tp14902
a(S'727-773'
p14903
S'-46'
p14904
tp14905
a(S'461-266'
p14906
S'195'
p14907
tp14908
a(S'705-297'
p14909
S'408'
p14910
tp14911
a(S'782-220'
p14912
S'562'
p14913
tp14914
a(S'757-851'
p14915
S'-94'
p14916
tp14917
a(S'557-299'
p14918
S'258'
p14919
tp14920
a(S'189-187'
p14921
g973
tp14922
a(S'591-147'
p14923
S'444'
p14924
tp14925
a(S'613-57'
p14926
S'556'
p14927
tp14928
a(S'516-667'
p14929
S'-151'
p14930
tp14931
a(S'843-46'
p14932
S'797'
p14933
tp14934
a(S'321-388'
p14935
S'-67'
p14936
tp14937
a(S'612-340'
p14938
S'272'
p14939
tp14940
a(S'777-42'
p14941
S'735'
p14942
tp14943
a(S'182-641'
p14944
S'-459'
p14945
tp14946
a(S'626-367'
p14947
S'259'
p14948
tp14949
a(S'200-45'
p14950
S'155'
p14951
tp14952
a(S'762-604'
p14953
S'158'
p14954
tp14955
a.